

Microchip MPLAB XC8 Assembler V2.32 build 20210201212658 
                                                                                               Sat Jul 03 23:46:51 2021

Microchip MPLAB XC8 C Compiler v2.32 (Free license) build 20210201212658 Og1 
     1                           	processor	16F887
     2                           	pagewidth 120
     3                           	opt	flic
     4                           	psect	idataBANK1,global,class=CODE,delta=2,noexec
     5                           	psect	strings,global,class=STRING,delta=2,noexec
     6                           	psect	cinit,global,class=CODE,merge=1,delta=2
     7                           	psect	bssCOMMON,global,class=COMMON,space=1,delta=1,noexec
     8                           	psect	bssBANK1,global,class=BANK1,space=1,delta=1,noexec
     9                           	psect	dataBANK1,global,class=BANK1,space=1,delta=1,noexec
    10                           	psect	inittext,global,class=CODE,delta=2
    11                           	psect	cstackBANK1,global,class=BANK1,space=1,delta=1,noexec
    12                           	psect	cstackCOMMON,global,class=COMMON,space=1,delta=1,noexec
    13                           	psect	cstackBANK0,global,class=BANK0,space=1,delta=1,noexec
    14                           	psect	maintext,global,class=CODE,split=1,delta=2
    15                           	psect	text1,local,class=CODE,merge=1,delta=2
    16                           	psect	text2,local,class=CODE,merge=1,delta=2
    17                           	psect	text3,local,class=CODE,merge=1,delta=2
    18                           	psect	text4,local,class=CODE,merge=1,delta=2
    19                           	psect	text5,local,class=CODE,merge=1,delta=2
    20                           	psect	text6,local,class=CODE,merge=1,delta=2,group=1
    21                           	psect	text7,local,class=CODE,merge=1,delta=2,group=1
    22                           	psect	text8,local,class=CODE,merge=1,delta=2
    23                           	psect	text9,local,class=CODE,merge=1,delta=2
    24                           	psect	text10,local,class=CODE,merge=1,delta=2
    25                           	psect	text11,local,class=CODE,merge=1,delta=2
    26                           	psect	text12,local,class=CODE,merge=1,delta=2
    27                           	psect	text13,local,class=CODE,merge=1,delta=2
    28                           	psect	text14,local,class=CODE,merge=1,delta=2,group=1
    29                           	psect	text15,local,class=CODE,merge=1,delta=2,group=1
    30                           	psect	text16,local,class=CODE,merge=1,delta=2,group=1
    31                           	psect	text17,local,class=CODE,merge=1,delta=2,group=1
    32                           	psect	text18,local,class=CODE,merge=1,delta=2,group=1
    33                           	psect	text19,local,class=CODE,merge=1,delta=2
    34                           	psect	intentry,global,class=CODE,delta=2
    35                           	psect	text20,local,class=CODE,merge=1,delta=2
    36                           	psect	text21,local,class=CODE,merge=1,delta=2
    37                           	psect	functab,global,class=ENTRY,delta=2
    38                           	psect	config,global,abs,ovrld,class=CONFIG,space=4,delta=2,noexec
    39                           	dabs	1,0x7E,2
    40  0000                     
    41                           ; Version 2.20
    42                           ; Generated 12/02/2020 GMT
    43                           ; 
    44                           ; Copyright © 2020, Microchip Technology Inc. and its subsidiaries ("Microchip")
    45                           ; All rights reserved.
    46                           ; 
    47                           ; This software is developed by Microchip Technology Inc. and its subsidiaries ("Microch
      +                          ip").
    48                           ; 
    49                           ; Redistribution and use in source and binary forms, with or without modification, are
    50                           ; permitted provided that the following conditions are met:
    51                           ; 
    52                           ;     1. Redistributions of source code must retain the above copyright notice, this lis
      +                          t of
    53                           ;        conditions and the following disclaimer.
    54                           ; 
    55                           ;     2. Redistributions in binary form must reproduce the above copyright notice, this 
      +                          list
    56                           ;        of conditions and the following disclaimer in the documentation and/or other
    57                           ;        materials provided with the distribution.
    58                           ; 
    59                           ;     3. Microchip's name may not be used to endorse or promote products derived from th
      +                          is
    60                           ;        software without specific prior written permission.
    61                           ; 
    62                           ; THIS SOFTWARE IS PROVIDED BY MICROCHIP "AS IS" AND ANY EXPRESS OR IMPLIED WARRANTIES,
    63                           ; INCLUDING, BUT NOT LIMITED TO, THE IMPLIED WARRANTIES OF MERCHANTABILITY AND FITNESS F
      +                          OR
    64                           ; PURPOSE ARE DISCLAIMED.  IN NO EVENT SHALL MICROCHIP BE LIABLE FOR ANY DIRECT, INDIREC
      +                          T,
    65                           ; INCIDENTAL, SPECIAL, EXEMPLARY, OR CONSEQUENTIAL DAMAGES (INCLUDING BUT NOT LIMITED TO
    66                           ; PROCUREMENT OF SUBSTITUTE GOODS OR SERVICES; LOSS OF USE, DATA OR PROFITS; OR BUSINESS
    67                           ; INTERRUPTION) HOWSOEVER CAUSED AND ON ANY THEORY OF LIABILITY, WHETHER IN CONTRACT, ST
      +                          RICT
    68                           ; LIABILITY, OR TORT (INCLUDING NEGLIGENCE OR OTHERWISE) ARISING IN ANY WAY OUT OF THE U
      +                          SE OF
    69                           ; THIS SOFTWARE, EVEN IF ADVISED OF THE POSSIBILITY OF SUCH DAMAGE.
    70                           ; 
    71                           ; 
    72                           ; Code-generator required, PIC16F887 Definitions
    73                           ; 
    74                           ; SFR Addresses
    75  0000                     	;# 
    76  0001                     	;# 
    77  0002                     	;# 
    78  0003                     	;# 
    79  0004                     	;# 
    80  0005                     	;# 
    81  0006                     	;# 
    82  0007                     	;# 
    83  0008                     	;# 
    84  0009                     	;# 
    85  000A                     	;# 
    86  000B                     	;# 
    87  000C                     	;# 
    88  000D                     	;# 
    89  000E                     	;# 
    90  000E                     	;# 
    91  000F                     	;# 
    92  0010                     	;# 
    93  0011                     	;# 
    94  0012                     	;# 
    95  0013                     	;# 
    96  0014                     	;# 
    97  0015                     	;# 
    98  0015                     	;# 
    99  0016                     	;# 
   100  0017                     	;# 
   101  0018                     	;# 
   102  0019                     	;# 
   103  001A                     	;# 
   104  001B                     	;# 
   105  001B                     	;# 
   106  001C                     	;# 
   107  001D                     	;# 
   108  001E                     	;# 
   109  001F                     	;# 
   110  0081                     	;# 
   111  0085                     	;# 
   112  0086                     	;# 
   113  0087                     	;# 
   114  0088                     	;# 
   115  0089                     	;# 
   116  008C                     	;# 
   117  008D                     	;# 
   118  008E                     	;# 
   119  008F                     	;# 
   120  0090                     	;# 
   121  0091                     	;# 
   122  0092                     	;# 
   123  0093                     	;# 
   124  0093                     	;# 
   125  0093                     	;# 
   126  0094                     	;# 
   127  0095                     	;# 
   128  0096                     	;# 
   129  0097                     	;# 
   130  0098                     	;# 
   131  0099                     	;# 
   132  009A                     	;# 
   133  009B                     	;# 
   134  009C                     	;# 
   135  009D                     	;# 
   136  009E                     	;# 
   137  009F                     	;# 
   138  0105                     	;# 
   139  0107                     	;# 
   140  0108                     	;# 
   141  0109                     	;# 
   142  010C                     	;# 
   143  010C                     	;# 
   144  010D                     	;# 
   145  010E                     	;# 
   146  010F                     	;# 
   147  0185                     	;# 
   148  0187                     	;# 
   149  0188                     	;# 
   150  0189                     	;# 
   151  018C                     	;# 
   152  018D                     	;# 
   153  0000                     	;# 
   154  0001                     	;# 
   155  0002                     	;# 
   156  0003                     	;# 
   157  0004                     	;# 
   158  0005                     	;# 
   159  0006                     	;# 
   160  0007                     	;# 
   161  0008                     	;# 
   162  0009                     	;# 
   163  000A                     	;# 
   164  000B                     	;# 
   165  000C                     	;# 
   166  000D                     	;# 
   167  000E                     	;# 
   168  000E                     	;# 
   169  000F                     	;# 
   170  0010                     	;# 
   171  0011                     	;# 
   172  0012                     	;# 
   173  0013                     	;# 
   174  0014                     	;# 
   175  0015                     	;# 
   176  0015                     	;# 
   177  0016                     	;# 
   178  0017                     	;# 
   179  0018                     	;# 
   180  0019                     	;# 
   181  001A                     	;# 
   182  001B                     	;# 
   183  001B                     	;# 
   184  001C                     	;# 
   185  001D                     	;# 
   186  001E                     	;# 
   187  001F                     	;# 
   188  0081                     	;# 
   189  0085                     	;# 
   190  0086                     	;# 
   191  0087                     	;# 
   192  0088                     	;# 
   193  0089                     	;# 
   194  008C                     	;# 
   195  008D                     	;# 
   196  008E                     	;# 
   197  008F                     	;# 
   198  0090                     	;# 
   199  0091                     	;# 
   200  0092                     	;# 
   201  0093                     	;# 
   202  0093                     	;# 
   203  0093                     	;# 
   204  0094                     	;# 
   205  0095                     	;# 
   206  0096                     	;# 
   207  0097                     	;# 
   208  0098                     	;# 
   209  0099                     	;# 
   210  009A                     	;# 
   211  009B                     	;# 
   212  009C                     	;# 
   213  009D                     	;# 
   214  009E                     	;# 
   215  009F                     	;# 
   216  0105                     	;# 
   217  0107                     	;# 
   218  0108                     	;# 
   219  0109                     	;# 
   220  010C                     	;# 
   221  010C                     	;# 
   222  010D                     	;# 
   223  010E                     	;# 
   224  010F                     	;# 
   225  0185                     	;# 
   226  0187                     	;# 
   227  0188                     	;# 
   228  0189                     	;# 
   229  018C                     	;# 
   230  018D                     	;# 
   231  0000                     	;# 
   232  0001                     	;# 
   233  0002                     	;# 
   234  0003                     	;# 
   235  0004                     	;# 
   236  0005                     	;# 
   237  0006                     	;# 
   238  0007                     	;# 
   239  0008                     	;# 
   240  0009                     	;# 
   241  000A                     	;# 
   242  000B                     	;# 
   243  000C                     	;# 
   244  000D                     	;# 
   245  000E                     	;# 
   246  000E                     	;# 
   247  000F                     	;# 
   248  0010                     	;# 
   249  0011                     	;# 
   250  0012                     	;# 
   251  0013                     	;# 
   252  0014                     	;# 
   253  0015                     	;# 
   254  0015                     	;# 
   255  0016                     	;# 
   256  0017                     	;# 
   257  0018                     	;# 
   258  0019                     	;# 
   259  001A                     	;# 
   260  001B                     	;# 
   261  001B                     	;# 
   262  001C                     	;# 
   263  001D                     	;# 
   264  001E                     	;# 
   265  001F                     	;# 
   266  0081                     	;# 
   267  0085                     	;# 
   268  0086                     	;# 
   269  0087                     	;# 
   270  0088                     	;# 
   271  0089                     	;# 
   272  008C                     	;# 
   273  008D                     	;# 
   274  008E                     	;# 
   275  008F                     	;# 
   276  0090                     	;# 
   277  0091                     	;# 
   278  0092                     	;# 
   279  0093                     	;# 
   280  0093                     	;# 
   281  0093                     	;# 
   282  0094                     	;# 
   283  0095                     	;# 
   284  0096                     	;# 
   285  0097                     	;# 
   286  0098                     	;# 
   287  0099                     	;# 
   288  009A                     	;# 
   289  009B                     	;# 
   290  009C                     	;# 
   291  009D                     	;# 
   292  009E                     	;# 
   293  009F                     	;# 
   294  0105                     	;# 
   295  0107                     	;# 
   296  0108                     	;# 
   297  0109                     	;# 
   298  010C                     	;# 
   299  010C                     	;# 
   300  010D                     	;# 
   301  010E                     	;# 
   302  010F                     	;# 
   303  0185                     	;# 
   304  0187                     	;# 
   305  0188                     	;# 
   306  0189                     	;# 
   307  018C                     	;# 
   308  018D                     	;# 
   309  0000                     	;# 
   310  0001                     	;# 
   311  0002                     	;# 
   312  0003                     	;# 
   313  0004                     	;# 
   314  0005                     	;# 
   315  0006                     	;# 
   316  0007                     	;# 
   317  0008                     	;# 
   318  0009                     	;# 
   319  000A                     	;# 
   320  000B                     	;# 
   321  000C                     	;# 
   322  000D                     	;# 
   323  000E                     	;# 
   324  000E                     	;# 
   325  000F                     	;# 
   326  0010                     	;# 
   327  0011                     	;# 
   328  0012                     	;# 
   329  0013                     	;# 
   330  0014                     	;# 
   331  0015                     	;# 
   332  0015                     	;# 
   333  0016                     	;# 
   334  0017                     	;# 
   335  0018                     	;# 
   336  0019                     	;# 
   337  001A                     	;# 
   338  001B                     	;# 
   339  001B                     	;# 
   340  001C                     	;# 
   341  001D                     	;# 
   342  001E                     	;# 
   343  001F                     	;# 
   344  0081                     	;# 
   345  0085                     	;# 
   346  0086                     	;# 
   347  0087                     	;# 
   348  0088                     	;# 
   349  0089                     	;# 
   350  008C                     	;# 
   351  008D                     	;# 
   352  008E                     	;# 
   353  008F                     	;# 
   354  0090                     	;# 
   355  0091                     	;# 
   356  0092                     	;# 
   357  0093                     	;# 
   358  0093                     	;# 
   359  0093                     	;# 
   360  0094                     	;# 
   361  0095                     	;# 
   362  0096                     	;# 
   363  0097                     	;# 
   364  0098                     	;# 
   365  0099                     	;# 
   366  009A                     	;# 
   367  009B                     	;# 
   368  009C                     	;# 
   369  009D                     	;# 
   370  009E                     	;# 
   371  009F                     	;# 
   372  0105                     	;# 
   373  0107                     	;# 
   374  0108                     	;# 
   375  0109                     	;# 
   376  010C                     	;# 
   377  010C                     	;# 
   378  010D                     	;# 
   379  010E                     	;# 
   380  010F                     	;# 
   381  0185                     	;# 
   382  0187                     	;# 
   383  0188                     	;# 
   384  0189                     	;# 
   385  018C                     	;# 
   386  018D                     	;# 
   387  0000                     	;# 
   388  0001                     	;# 
   389  0002                     	;# 
   390  0003                     	;# 
   391  0004                     	;# 
   392  0005                     	;# 
   393  0006                     	;# 
   394  0007                     	;# 
   395  0008                     	;# 
   396  0009                     	;# 
   397  000A                     	;# 
   398  000B                     	;# 
   399  000C                     	;# 
   400  000D                     	;# 
   401  000E                     	;# 
   402  000E                     	;# 
   403  000F                     	;# 
   404  0010                     	;# 
   405  0011                     	;# 
   406  0012                     	;# 
   407  0013                     	;# 
   408  0014                     	;# 
   409  0015                     	;# 
   410  0015                     	;# 
   411  0016                     	;# 
   412  0017                     	;# 
   413  0018                     	;# 
   414  0019                     	;# 
   415  001A                     	;# 
   416  001B                     	;# 
   417  001B                     	;# 
   418  001C                     	;# 
   419  001D                     	;# 
   420  001E                     	;# 
   421  001F                     	;# 
   422  0081                     	;# 
   423  0085                     	;# 
   424  0086                     	;# 
   425  0087                     	;# 
   426  0088                     	;# 
   427  0089                     	;# 
   428  008C                     	;# 
   429  008D                     	;# 
   430  008E                     	;# 
   431  008F                     	;# 
   432  0090                     	;# 
   433  0091                     	;# 
   434  0092                     	;# 
   435  0093                     	;# 
   436  0093                     	;# 
   437  0093                     	;# 
   438  0094                     	;# 
   439  0095                     	;# 
   440  0096                     	;# 
   441  0097                     	;# 
   442  0098                     	;# 
   443  0099                     	;# 
   444  009A                     	;# 
   445  009B                     	;# 
   446  009C                     	;# 
   447  009D                     	;# 
   448  009E                     	;# 
   449  009F                     	;# 
   450  0105                     	;# 
   451  0107                     	;# 
   452  0108                     	;# 
   453  0109                     	;# 
   454  010C                     	;# 
   455  010C                     	;# 
   456  010D                     	;# 
   457  010E                     	;# 
   458  010F                     	;# 
   459  0185                     	;# 
   460  0187                     	;# 
   461  0188                     	;# 
   462  0189                     	;# 
   463  018C                     	;# 
   464  018D                     	;# 
   465  0000                     	;# 
   466  0001                     	;# 
   467  0002                     	;# 
   468  0003                     	;# 
   469  0004                     	;# 
   470  0005                     	;# 
   471  0006                     	;# 
   472  0007                     	;# 
   473  0008                     	;# 
   474  0009                     	;# 
   475  000A                     	;# 
   476  000B                     	;# 
   477  000C                     	;# 
   478  000D                     	;# 
   479  000E                     	;# 
   480  000E                     	;# 
   481  000F                     	;# 
   482  0010                     	;# 
   483  0011                     	;# 
   484  0012                     	;# 
   485  0013                     	;# 
   486  0014                     	;# 
   487  0015                     	;# 
   488  0015                     	;# 
   489  0016                     	;# 
   490  0017                     	;# 
   491  0018                     	;# 
   492  0019                     	;# 
   493  001A                     	;# 
   494  001B                     	;# 
   495  001B                     	;# 
   496  001C                     	;# 
   497  001D                     	;# 
   498  001E                     	;# 
   499  001F                     	;# 
   500  0081                     	;# 
   501  0085                     	;# 
   502  0086                     	;# 
   503  0087                     	;# 
   504  0088                     	;# 
   505  0089                     	;# 
   506  008C                     	;# 
   507  008D                     	;# 
   508  008E                     	;# 
   509  008F                     	;# 
   510  0090                     	;# 
   511  0091                     	;# 
   512  0092                     	;# 
   513  0093                     	;# 
   514  0093                     	;# 
   515  0093                     	;# 
   516  0094                     	;# 
   517  0095                     	;# 
   518  0096                     	;# 
   519  0097                     	;# 
   520  0098                     	;# 
   521  0099                     	;# 
   522  009A                     	;# 
   523  009B                     	;# 
   524  009C                     	;# 
   525  009D                     	;# 
   526  009E                     	;# 
   527  009F                     	;# 
   528  0105                     	;# 
   529  0107                     	;# 
   530  0108                     	;# 
   531  0109                     	;# 
   532  010C                     	;# 
   533  010C                     	;# 
   534  010D                     	;# 
   535  010E                     	;# 
   536  010F                     	;# 
   537  0185                     	;# 
   538  0187                     	;# 
   539  0188                     	;# 
   540  0189                     	;# 
   541  018C                     	;# 
   542  018D                     	;# 
   543  0000                     	;# 
   544  0001                     	;# 
   545  0002                     	;# 
   546  0003                     	;# 
   547  0004                     	;# 
   548  0005                     	;# 
   549  0006                     	;# 
   550  0007                     	;# 
   551  0008                     	;# 
   552  0009                     	;# 
   553  000A                     	;# 
   554  000B                     	;# 
   555  000C                     	;# 
   556  000D                     	;# 
   557  000E                     	;# 
   558  000E                     	;# 
   559  000F                     	;# 
   560  0010                     	;# 
   561  0011                     	;# 
   562  0012                     	;# 
   563  0013                     	;# 
   564  0014                     	;# 
   565  0015                     	;# 
   566  0015                     	;# 
   567  0016                     	;# 
   568  0017                     	;# 
   569  0018                     	;# 
   570  0019                     	;# 
   571  001A                     	;# 
   572  001B                     	;# 
   573  001B                     	;# 
   574  001C                     	;# 
   575  001D                     	;# 
   576  001E                     	;# 
   577  001F                     	;# 
   578  0081                     	;# 
   579  0085                     	;# 
   580  0086                     	;# 
   581  0087                     	;# 
   582  0088                     	;# 
   583  0089                     	;# 
   584  008C                     	;# 
   585  008D                     	;# 
   586  008E                     	;# 
   587  008F                     	;# 
   588  0090                     	;# 
   589  0091                     	;# 
   590  0092                     	;# 
   591  0093                     	;# 
   592  0093                     	;# 
   593  0093                     	;# 
   594  0094                     	;# 
   595  0095                     	;# 
   596  0096                     	;# 
   597  0097                     	;# 
   598  0098                     	;# 
   599  0099                     	;# 
   600  009A                     	;# 
   601  009B                     	;# 
   602  009C                     	;# 
   603  009D                     	;# 
   604  009E                     	;# 
   605  009F                     	;# 
   606  0105                     	;# 
   607  0107                     	;# 
   608  0108                     	;# 
   609  0109                     	;# 
   610  010C                     	;# 
   611  010C                     	;# 
   612  010D                     	;# 
   613  010E                     	;# 
   614  010F                     	;# 
   615  0185                     	;# 
   616  0187                     	;# 
   617  0188                     	;# 
   618  0189                     	;# 
   619  018C                     	;# 
   620  018D                     	;# 
   621  0000                     	;# 
   622  0001                     	;# 
   623  0002                     	;# 
   624  0003                     	;# 
   625  0004                     	;# 
   626  0005                     	;# 
   627  0006                     	;# 
   628  0007                     	;# 
   629  0008                     	;# 
   630  0009                     	;# 
   631  000A                     	;# 
   632  000B                     	;# 
   633  000C                     	;# 
   634  000D                     	;# 
   635  000E                     	;# 
   636  000E                     	;# 
   637  000F                     	;# 
   638  0010                     	;# 
   639  0011                     	;# 
   640  0012                     	;# 
   641  0013                     	;# 
   642  0014                     	;# 
   643  0015                     	;# 
   644  0015                     	;# 
   645  0016                     	;# 
   646  0017                     	;# 
   647  0018                     	;# 
   648  0019                     	;# 
   649  001A                     	;# 
   650  001B                     	;# 
   651  001B                     	;# 
   652  001C                     	;# 
   653  001D                     	;# 
   654  001E                     	;# 
   655  001F                     	;# 
   656  0081                     	;# 
   657  0085                     	;# 
   658  0086                     	;# 
   659  0087                     	;# 
   660  0088                     	;# 
   661  0089                     	;# 
   662  008C                     	;# 
   663  008D                     	;# 
   664  008E                     	;# 
   665  008F                     	;# 
   666  0090                     	;# 
   667  0091                     	;# 
   668  0092                     	;# 
   669  0093                     	;# 
   670  0093                     	;# 
   671  0093                     	;# 
   672  0094                     	;# 
   673  0095                     	;# 
   674  0096                     	;# 
   675  0097                     	;# 
   676  0098                     	;# 
   677  0099                     	;# 
   678  009A                     	;# 
   679  009B                     	;# 
   680  009C                     	;# 
   681  009D                     	;# 
   682  009E                     	;# 
   683  009F                     	;# 
   684  0105                     	;# 
   685  0107                     	;# 
   686  0108                     	;# 
   687  0109                     	;# 
   688  010C                     	;# 
   689  010C                     	;# 
   690  010D                     	;# 
   691  010E                     	;# 
   692  010F                     	;# 
   693  0185                     	;# 
   694  0187                     	;# 
   695  0188                     	;# 
   696  0189                     	;# 
   697  018C                     	;# 
   698  018D                     	;# 
   699                           
   700 ;; Function _LCD_str is unused but had its address taken
   701  0000                     
   702 ;; Function _dispLCD_clr is unused but had its address taken
   703  0000                     
   704 ;; Function _lcd_b0 is unused but had its address taken
   705  0000                     
   706 ;; Function _lcd_b1 is unused but had its address taken
   707  0000                     
   708 ;; Function _timer0_init is unused but had its address taken
   709  0000                     
   710 ;; Function _timer0_get is unused but had its address taken
   711  0000                     
   712 ;; Function _Play_timer0 is unused but had its address taken
   713  0000                     
   714 ;; Function _Pause_timer0 is unused but had its address taken
   715  0000                     
   716 ;; Function _status_timer0 is unused but had its address taken
   717  0000                     
   718                           	psect	idataBANK1
   719  0B76                     __pidataBANK1:
   720                           
   721                           ;initializer for _print
   722  0B76  3407               	retlw	low (fp__LCD_init-fpbase)
   723  0B77  3400               	retlw	0
   724  0B78  3404               	retlw	low (fp__LCD_Texto-fpbase)
   725  0B79  340A               	retlw	low (fp__LCD_num-fpbase)
   726  0B7A  3400               	retlw	0
   727  0B7B  3400               	retlw	0
   728  0B7C  3400               	retlw	0
   729                           
   730                           ;initializer for _TM0
   731  0B7D  3400               	retlw	0
   732  0B7E  3400               	retlw	0
   733  0B7F  3400               	retlw	0
   734  0B80  3400               	retlw	0
   735  0B81  3400               	retlw	0
   736                           
   737                           ;initializer for _value
   738  0B82  340D               	retlw	low (fp__celsius_value-fpbase)
   739  0B83  3410               	retlw	low (fp__kelvin_value-fpbase)
   740  0B84  3401               	retlw	low (fp__Fahrenheit_value-fpbase)
   741  0001                     _TMR0	set	1
   742  0008                     _LCDbits	set	8
   743  0006                     _PORTB	set	6
   744  000C                     _PIR1bits	set	12
   745  001E                     _ADRESH	set	30
   746  001F                     _ADCON0bits	set	31
   747  000B                     _INTCONbits	set	11
   748  0081                     _OPTION_REGbits	set	129
   749  0086                     _TRISB	set	134
   750  0088                     _TRISDbits	set	136
   751  008C                     _PIE1bits	set	140
   752  009E                     _ADRESL	set	158
   753  009F                     _ADCON1bits	set	159
   754  0189                     _ANSELH	set	393
   755  0188                     _ANSELbits	set	392
   756                           
   757                           	psect	strings
   758  0800                     __pstrings:
   759  0800                     stringtab:
   760  0800                     __stringtab:
   761  0800                     stringcode:	
   762                           ;	String table - string pointers are 1 byte each
   763                           
   764  0800                     stringdir:
   765  0800  3008               	movlw	high stringdir
   766  0801  008A               	movwf	10
   767  0802  0804               	movf	4,w
   768  0803  0A84               	incf	4,f
   769  0804  0782               	addwf	2,f
   770  0805                     __stringbase:
   771  0805  3400               	retlw	0
   772  0806                     __end_of__stringtab:
   773  0806                     STR_1:
   774  0806  3420               	retlw	32	;' '
   775  0807  3443               	retlw	67	;'C'
   776  0808  3420               	retlw	32	;' '
   777  0809  3420               	retlw	32	;' '
   778  080A  3420               	retlw	32	;' '
   779  080B  3420               	retlw	32	;' '
   780  080C  3420               	retlw	32	;' '
   781  080D  344B               	retlw	75	;'K'
   782  080E  3420               	retlw	32	;' '
   783  080F  3420               	retlw	32	;' '
   784  0810  3420               	retlw	32	;' '
   785  0811  3420               	retlw	32	;' '
   786  0812  3420               	retlw	32	;' '
   787  0813  3446               	retlw	70	;'F'
   788  0814  3420               	retlw	32	;' '
   789  0815  3420               	retlw	32	;' '
   790  0816  3400               	retlw	0
   791                           
   792                           	psect	cinit
   793  000F                     start_initialization:	
   794                           ; #config settings
   795                           
   796  000F                     __initialization:
   797                           
   798                           ; Initialize objects allocated to BANK1
   799  000F  1383               	bcf	3,7	;select IRP bank0
   800  0010  30AF               	movlw	low (__pdataBANK1+15)
   801  0011  00FD               	movwf	btemp+-1
   802  0012  300B               	movlw	high __pidataBANK1
   803  0013  00FE               	movwf	btemp
   804  0014  3076               	movlw	low __pidataBANK1
   805  0015  00FF               	movwf	btemp+1
   806  0016  30A0               	movlw	low __pdataBANK1
   807  0017  0084               	movwf	4
   808  0018  120A  158A  2389  120A  118A  	fcall	init_ram0
   809                           
   810                           ; Clear objects allocated to BANK1
   811  001D  1683               	bsf	3,5	;RP0=1, select bank1
   812  001E  1303               	bcf	3,6	;RP1=0, select bank1
   813  001F  01B8               	clrf	__pbssBANK1& (0+127)
   814  0020  01B9               	clrf	(__pbssBANK1+1)& (0+127)
   815  0021  01BA               	clrf	(__pbssBANK1+2)& (0+127)
   816  0022  01BB               	clrf	(__pbssBANK1+3)& (0+127)
   817                           
   818                           ; Clear objects allocated to COMMON
   819  0023  01F0               	clrf	__pbssCOMMON& (0+127)
   820  0024  01F1               	clrf	(__pbssCOMMON+1)& (0+127)
   821  0025  01F2               	clrf	(__pbssCOMMON+2)& (0+127)
   822  0026  01F3               	clrf	(__pbssCOMMON+3)& (0+127)
   823  0027  01F4               	clrf	(__pbssCOMMON+4)& (0+127)
   824  0028  01F5               	clrf	(__pbssCOMMON+5)& (0+127)
   825  0029                     end_of_initialization:	
   826                           ;End of C runtime variable initialization code
   827                           
   828  0029                     __end_of__initialization:
   829  0029  0183               	clrf	3
   830  002A  120A  118A  2F52   	ljmp	_main	;jump to C main() function
   831                           
   832                           	psect	bssCOMMON
   833  0070                     __pbssCOMMON:
   834  0070                     _timer0_value:
   835  0070                     	ds	2
   836  0072                     _var_value:
   837  0072                     	ds	2
   838  0074                     _read_value:
   839  0074                     	ds	2
   840                           
   841                           	psect	bssBANK1
   842  00B8                     __pbssBANK1:
   843  00B8                     _counter_value:
   844  00B8                     	ds	2
   845  00BA                     _temp_value:
   846  00BA                     	ds	2
   847                           
   848                           	psect	dataBANK1
   849  00A0                     __pdataBANK1:
   850  00A0                     _print:
   851  00A0                     	ds	7
   852  00A7                     _TM0:
   853  00A7                     	ds	5
   854  00AC                     _value:
   855  00AC                     	ds	3
   856                           
   857                           	psect	inittext
   858  0B85                     init_fetch0:	
   859                           ;	Called with low address in FSR and high address in W
   860                           
   861  0B85  087E               	movf	btemp,w
   862  0B86  008A               	movwf	10
   863  0B87  087F               	movf	btemp+1,w
   864  0B88  0082               	movwf	2
   865  0B89                     init_ram0:	
   866                           ;Called with:
   867                           ;	high address of idata address in btemp 
   868                           ;	low address of idata address in btemp+1 
   869                           ;	low address of data in FSR
   870                           ;	high address + 1 of data in btemp-1
   871                           
   872  0B89  120A  158A  2385  120A  158A  	fcall	init_fetch0
   873  0B8E  0080               	movwf	0
   874  0B8F  0A84               	incf	4,f
   875  0B90  0804               	movf	4,w
   876  0B91  067D               	xorwf	btemp+-1,w
   877  0B92  1903               	btfsc	3,2
   878  0B93  3400               	retlw	0
   879  0B94  0AFF               	incf	btemp+1,f
   880  0B95  1903               	btfsc	3,2
   881  0B96  0AFE               	incf	btemp,f
   882  0B97  2B89               	goto	init_ram0
   883                           
   884                           	psect	cstackBANK1
   885  00AF                     __pcstackBANK1:
   886  00AF                     ??_LCD_num:
   887                           
   888                           ; 1 bytes @ 0x0
   889  00AF                     	ds	3
   890  00B2                     LCD_num@size:
   891                           
   892                           ; 1 bytes @ 0x3
   893  00B2                     	ds	1
   894  00B3                     LCD_num@sinal:
   895                           
   896                           ; 1 bytes @ 0x4
   897  00B3                     	ds	1
   898  00B4                     LCD_num@div:
   899                           
   900                           ; 2 bytes @ 0x5
   901  00B4                     	ds	2
   902  00B6                     ??_main:
   903                           
   904                           ; 1 bytes @ 0x7
   905  00B6                     	ds	2
   906                           
   907                           	psect	cstackCOMMON
   908  0076                     __pcstackCOMMON:
   909  0076                     ?_t0_init_cont:
   910  0076                     ??_t0_init_cont:	
   911                           ; 1 bytes @ 0x0
   912                           
   913  0076                     ?_adc_init:	
   914                           ; 1 bytes @ 0x0
   915                           
   916  0076                     ?_adc_read:	
   917                           ; 1 bytes @ 0x0
   918                           
   919  0076                     ??_adc_read:	
   920                           ; 1 bytes @ 0x0
   921                           
   922  0076                     ?_isr:	
   923                           ; 1 bytes @ 0x0
   924                           
   925  0076                     ?_dispLCD_instReg:	
   926                           ; 1 bytes @ 0x0
   927                           
   928  0076                     ?_dispLCD_dataReg:	
   929                           ; 1 bytes @ 0x0
   930                           
   931  0076                     ?_LCD_init:	
   932                           ; 1 bytes @ 0x0
   933                           
   934  0076                     ?_main:	
   935                           ; 1 bytes @ 0x0
   936                           
   937                           
   938                           ; 1 bytes @ 0x0
   939  0076                     	ds	4
   940  007A                     ??_isr:
   941                           
   942                           ; 1 bytes @ 0x4
   943  007A                     	ds	2
   944                           
   945                           	psect	cstackBANK0
   946  0020                     __pcstackBANK0:
   947  0020                     ??_adc_init:
   948  0020                     ??_dispLCD_instReg:	
   949                           ; 1 bytes @ 0x0
   950                           
   951  0020                     ??_dispLCD_dataReg:	
   952                           ; 1 bytes @ 0x0
   953                           
   954  0020                     ?__Umul8_16:	
   955                           ; 1 bytes @ 0x0
   956                           
   957  0020                     ?_adc_value:	
   958                           ; 2 bytes @ 0x0
   959                           
   960  0020                     ?_kelvin_value:	
   961                           ; 2 bytes @ 0x0
   962                           
   963  0020                     ?___awdiv:	
   964                           ; 2 bytes @ 0x0
   965                           
   966  0020                     ?___awmod:	
   967                           ; 2 bytes @ 0x0
   968                           
   969  0020                     ?___xxtofl:	
   970                           ; 2 bytes @ 0x0
   971                           
   972  0020                     __Umul8_16@multiplicand:	
   973                           ; 4 bytes @ 0x0
   974                           
   975  0020                     ___awdiv@divisor:	
   976                           ; 1 bytes @ 0x0
   977                           
   978  0020                     ___awmod@divisor:	
   979                           ; 2 bytes @ 0x0
   980                           
   981  0020                     ___xxtofl@val:	
   982                           ; 2 bytes @ 0x0
   983                           
   984                           
   985                           ; 4 bytes @ 0x0
   986  0020                     	ds	1
   987  0021                     dispLCD_dataReg@d:
   988                           
   989                           ; 1 bytes @ 0x1
   990  0021                     	ds	1
   991  0022                     ??__Umul8_16:
   992  0022                     ??_adc_value:	
   993                           ; 1 bytes @ 0x2
   994                           
   995  0022                     ??_kelvin_value:	
   996                           ; 1 bytes @ 0x2
   997                           
   998  0022                     dispLCD_instReg@i:	
   999                           ; 1 bytes @ 0x2
  1000                           
  1001  0022                     kelvin_value@kelvin_value:	
  1002                           ; 1 bytes @ 0x2
  1003                           
  1004  0022                     ___awdiv@dividend:	
  1005                           ; 2 bytes @ 0x2
  1006                           
  1007  0022                     ___awmod@dividend:	
  1008                           ; 2 bytes @ 0x2
  1009                           
  1010                           
  1011                           ; 2 bytes @ 0x2
  1012  0022                     	ds	1
  1013  0023                     ?_dispLCD_lincol:
  1014  0023                     ??_LCD_init:	
  1015                           ; 1 bytes @ 0x3
  1016                           
  1017  0023                     dispLCD_lincol@col:	
  1018                           ; 1 bytes @ 0x3
  1019                           
  1020                           
  1021                           ; 1 bytes @ 0x3
  1022  0023                     	ds	1
  1023  0024                     ??_dispLCD_lincol:
  1024  0024                     ??___awdiv:	
  1025                           ; 1 bytes @ 0x4
  1026                           
  1027  0024                     ??___awmod:	
  1028                           ; 1 bytes @ 0x4
  1029                           
  1030  0024                     ??___xxtofl:	
  1031                           ; 1 bytes @ 0x4
  1032                           
  1033  0024                     __Umul8_16@product:	
  1034                           ; 1 bytes @ 0x4
  1035                           
  1036                           
  1037                           ; 2 bytes @ 0x4
  1038  0024                     	ds	1
  1039  0025                     dispLCD_lincol@lin:
  1040  0025                     ___awdiv@counter:	
  1041                           ; 1 bytes @ 0x5
  1042                           
  1043  0025                     ___awmod@counter:	
  1044                           ; 1 bytes @ 0x5
  1045                           
  1046                           
  1047                           ; 1 bytes @ 0x5
  1048  0025                     	ds	1
  1049  0026                     ?_LCD_Texto:
  1050  0026                     LCD_Texto@lin:	
  1051                           ; 1 bytes @ 0x6
  1052                           
  1053  0026                     ___awdiv@sign:	
  1054                           ; 1 bytes @ 0x6
  1055                           
  1056  0026                     ___awmod@sign:	
  1057                           ; 1 bytes @ 0x6
  1058                           
  1059  0026                     __Umul8_16@word_mpld:	
  1060                           ; 1 bytes @ 0x6
  1061                           
  1062                           
  1063                           ; 2 bytes @ 0x6
  1064  0026                     	ds	1
  1065  0027                     LCD_Texto@col:
  1066  0027                     ___awdiv@quotient:	
  1067                           ; 1 bytes @ 0x7
  1068                           
  1069                           
  1070                           ; 2 bytes @ 0x7
  1071  0027                     	ds	1
  1072  0028                     LCD_Texto@str:
  1073  0028                     __Umul8_16@multiplier:	
  1074                           ; 1 bytes @ 0x8
  1075                           
  1076  0028                     ___xxtofl@sign:	
  1077                           ; 1 bytes @ 0x8
  1078                           
  1079                           
  1080                           ; 1 bytes @ 0x8
  1081  0028                     	ds	1
  1082  0029                     ??_LCD_Texto:
  1083  0029                     ___xxtofl@exp:	
  1084                           ; 1 bytes @ 0x9
  1085                           
  1086                           
  1087                           ; 1 bytes @ 0x9
  1088  0029                     	ds	1
  1089  002A                     LCD_Texto@pos:
  1090  002A                     ___xxtofl@arg:	
  1091                           ; 1 bytes @ 0xA
  1092                           
  1093                           
  1094                           ; 4 bytes @ 0xA
  1095  002A                     	ds	4
  1096  002E                     ?___flmul:
  1097  002E                     ___flmul@b:	
  1098                           ; 4 bytes @ 0xE
  1099                           
  1100                           
  1101                           ; 4 bytes @ 0xE
  1102  002E                     	ds	4
  1103  0032                     ___flmul@a:
  1104                           
  1105                           ; 4 bytes @ 0x12
  1106  0032                     	ds	4
  1107  0036                     ??___flmul:
  1108                           
  1109                           ; 1 bytes @ 0x16
  1110  0036                     	ds	5
  1111  003B                     ___flmul@sign:
  1112                           
  1113                           ; 1 bytes @ 0x1B
  1114  003B                     	ds	1
  1115  003C                     ___flmul@aexp:
  1116                           
  1117                           ; 1 bytes @ 0x1C
  1118  003C                     	ds	1
  1119  003D                     ___flmul@grs:
  1120                           
  1121                           ; 4 bytes @ 0x1D
  1122  003D                     	ds	4
  1123  0041                     ___flmul@bexp:
  1124                           
  1125                           ; 1 bytes @ 0x21
  1126  0041                     	ds	1
  1127  0042                     ___flmul@prod:
  1128                           
  1129                           ; 4 bytes @ 0x22
  1130  0042                     	ds	4
  1131  0046                     ___flmul@temp:
  1132                           
  1133                           ; 2 bytes @ 0x26
  1134  0046                     	ds	2
  1135  0048                     ?___fladd:
  1136  0048                     ___fladd@b:	
  1137                           ; 4 bytes @ 0x28
  1138                           
  1139                           
  1140                           ; 4 bytes @ 0x28
  1141  0048                     	ds	4
  1142  004C                     ___fladd@a:
  1143                           
  1144                           ; 4 bytes @ 0x2C
  1145  004C                     	ds	4
  1146  0050                     ??___fladd:
  1147                           
  1148                           ; 1 bytes @ 0x30
  1149  0050                     	ds	8
  1150  0058                     ___fladd@signs:
  1151                           
  1152                           ; 1 bytes @ 0x38
  1153  0058                     	ds	1
  1154  0059                     ___fladd@aexp:
  1155                           
  1156                           ; 1 bytes @ 0x39
  1157  0059                     	ds	1
  1158  005A                     ___fladd@bexp:
  1159                           
  1160                           ; 1 bytes @ 0x3A
  1161  005A                     	ds	1
  1162  005B                     ___fladd@grs:
  1163                           
  1164                           ; 1 bytes @ 0x3B
  1165  005B                     	ds	1
  1166  005C                     ?___fltol:
  1167  005C                     ___fltol@f1:	
  1168                           ; 4 bytes @ 0x3C
  1169                           
  1170                           
  1171                           ; 4 bytes @ 0x3C
  1172  005C                     	ds	4
  1173  0060                     ??___fltol:
  1174                           
  1175                           ; 1 bytes @ 0x40
  1176  0060                     	ds	5
  1177  0065                     ___fltol@sign1:
  1178                           
  1179                           ; 1 bytes @ 0x45
  1180  0065                     	ds	1
  1181  0066                     ___fltol@exp1:
  1182                           
  1183                           ; 1 bytes @ 0x46
  1184  0066                     	ds	1
  1185  0067                     ?_celsius_value:
  1186  0067                     ?_Fahrenheit_value:	
  1187                           ; 2 bytes @ 0x47
  1188                           
  1189                           
  1190                           ; 2 bytes @ 0x47
  1191  0067                     	ds	2
  1192  0069                     ??_celsius_value:
  1193  0069                     ??_Fahrenheit_value:	
  1194                           ; 1 bytes @ 0x49
  1195                           
  1196  0069                     celsius_value@celsius_value:	
  1197                           ; 1 bytes @ 0x49
  1198                           
  1199  0069                     Fahrenheit_value@Fahrenheit_value:	
  1200                           ; 2 bytes @ 0x49
  1201                           
  1202                           
  1203                           ; 2 bytes @ 0x49
  1204  0069                     	ds	2
  1205  006B                     ?_LCD_num:
  1206  006B                     LCD_num@lin:	
  1207                           ; 1 bytes @ 0x4B
  1208                           
  1209                           
  1210                           ; 1 bytes @ 0x4B
  1211  006B                     	ds	1
  1212  006C                     LCD_num@col:
  1213                           
  1214                           ; 1 bytes @ 0x4C
  1215  006C                     	ds	1
  1216  006D                     LCD_num@num:
  1217                           
  1218                           ; 2 bytes @ 0x4D
  1219  006D                     	ds	2
  1220  006F                     LCD_num@tam:
  1221                           
  1222                           ; 1 bytes @ 0x4F
  1223  006F                     	ds	1
  1224                           
  1225                           	psect	maintext
  1226  0752                     __pmaintext:	
  1227 ;;
  1228 ;;Main: autosize = 0, tempsize = 2, incstack = 0, save=0
  1229 ;;
  1230 ;; *************** function _main *****************
  1231 ;; Defined at:
  1232 ;;		line 15 in file "main.c"
  1233 ;; Parameters:    Size  Location     Type
  1234 ;;		None
  1235 ;; Auto vars:     Size  Location     Type
  1236 ;;		None
  1237 ;; Return value:  Size  Location     Type
  1238 ;;                  1    wreg      void 
  1239 ;; Registers used:
  1240 ;;		wreg, fsr0l, fsr0h, status,2, status,0, btemp+1, pclath, cstack
  1241 ;; Tracked objects:
  1242 ;;		On entry : B00/0
  1243 ;;		On exit  : 0/0
  1244 ;;		Unchanged: 0/0
  1245 ;; Data sizes:     COMMON   BANK0   BANK1   BANK3   BANK2
  1246 ;;      Params:         0       0       0       0       0
  1247 ;;      Locals:         0       0       0       0       0
  1248 ;;      Temps:          0       0       2       0       0
  1249 ;;      Totals:         0       0       2       0       0
  1250 ;;Total ram usage:        2 bytes
  1251 ;; Hardware stack levels required when called: 5
  1252 ;; This function calls:
  1253 ;;		_Fahrenheit_value
  1254 ;;		_LCD_Texto
  1255 ;;		_LCD_init
  1256 ;;		_LCD_num
  1257 ;;		_adc_init
  1258 ;;		_celsius_value
  1259 ;;		_kelvin_value
  1260 ;; This function is called by:
  1261 ;;		Startup code after reset
  1262 ;; This function uses a non-reentrant model
  1263 ;;
  1264                           
  1265                           
  1266                           ;psect for function _main
  1267  0752                     _main:
  1268  0752                     l2668:	
  1269                           ;incstack = 0
  1270                           ; Regs used in _main: [wreg-fsr0h+status,2+status,0+btemp+1+pclath+cstack]
  1271                           
  1272                           
  1273                           ;main.c: 17:     print.init();
  1274  0752  1683               	bsf	3,5	;RP0=1, select bank1
  1275  0753  1303               	bcf	3,6	;RP1=0, select bank1
  1276  0754  0820               	movf	_print^(0+128),w
  1277  0755  120A  118A  202D  120A  118A  	fcall	fptable
  1278                           
  1279                           ;main.c: 18:     adc_init();
  1280  075A  120A  158A  23E8  120A  118A  	fcall	_adc_init
  1281  075F                     l2670:
  1282                           
  1283                           ;main.c: 20:     print.str_position(0,0, " C     K     F  ");
  1284  075F  1283               	bcf	3,5	;RP0=0, select bank0
  1285  0760  1303               	bcf	3,6	;RP1=0, select bank0
  1286  0761  01A6               	clrf	LCD_Texto@lin
  1287  0762  01A7               	clrf	LCD_Texto@col
  1288  0763  3001               	movlw	(low ((STR_1-__stringbase)| (0+32768)))& (0+255)
  1289  0764  1683               	bsf	3,5	;RP0=1, select bank1
  1290  0765  1303               	bcf	3,6	;RP1=0, select bank1
  1291  0766  00B6               	movwf	??_main^(0+128)
  1292  0767  0836               	movf	??_main^(0+128),w
  1293  0768  1283               	bcf	3,5	;RP0=0, select bank0
  1294  0769  1303               	bcf	3,6	;RP1=0, select bank0
  1295  076A  00A8               	movwf	LCD_Texto@str
  1296  076B  1683               	bsf	3,5	;RP0=1, select bank1
  1297  076C  1303               	bcf	3,6	;RP1=0, select bank1
  1298  076D  0822               	movf	(low ((_print| 0+2)))^(0+128),w
  1299  076E  120A  118A  202D  120A  118A  	fcall	fptable
  1300  0773                     l2672:
  1301                           
  1302                           ;main.c: 23:     {;main.c: 24:           print.number(1, 0, (signed) value.celsius (),3)
      +                          ;
  1303  0773  1283               	bcf	3,5	;RP0=0, select bank0
  1304  0774  1303               	bcf	3,6	;RP1=0, select bank0
  1305  0775  01EB               	clrf	LCD_num@lin
  1306  0776  0AEB               	incf	LCD_num@lin,f
  1307  0777  01EC               	clrf	LCD_num@col
  1308  0778  1683               	bsf	3,5	;RP0=1, select bank1
  1309  0779  1303               	bcf	3,6	;RP1=0, select bank1
  1310  077A  082C               	movf	_value^(0+128),w
  1311  077B  120A  118A  202D  120A  118A  	fcall	fptable
  1312  0780  1283               	bcf	3,5	;RP0=0, select bank0
  1313  0781  1303               	bcf	3,6	;RP1=0, select bank0
  1314  0782  0868               	movf	?_celsius_value+1,w
  1315  0783  00EE               	movwf	LCD_num@num+1
  1316  0784  0867               	movf	?_celsius_value,w
  1317  0785  00ED               	movwf	LCD_num@num
  1318  0786  3003               	movlw	3
  1319  0787  1683               	bsf	3,5	;RP0=1, select bank1
  1320  0788  1303               	bcf	3,6	;RP1=0, select bank1
  1321  0789  00B6               	movwf	??_main^(0+128)
  1322  078A  0836               	movf	??_main^(0+128),w
  1323  078B  1283               	bcf	3,5	;RP0=0, select bank0
  1324  078C  1303               	bcf	3,6	;RP1=0, select bank0
  1325  078D  00EF               	movwf	LCD_num@tam
  1326  078E  1683               	bsf	3,5	;RP0=1, select bank1
  1327  078F  1303               	bcf	3,6	;RP1=0, select bank1
  1328  0790  0823               	movf	(low ((_print| 0+3)))^(0+128),w
  1329  0791  120A  118A  202D  120A  118A  	fcall	fptable
  1330  0796                     l2674:
  1331                           
  1332                           ;main.c: 25:           print.number(1, 6, (signed) value.kelvin (),3);
  1333  0796  1283               	bcf	3,5	;RP0=0, select bank0
  1334  0797  1303               	bcf	3,6	;RP1=0, select bank0
  1335  0798  01EB               	clrf	LCD_num@lin
  1336  0799  0AEB               	incf	LCD_num@lin,f
  1337  079A  3006               	movlw	6
  1338  079B  1683               	bsf	3,5	;RP0=1, select bank1
  1339  079C  1303               	bcf	3,6	;RP1=0, select bank1
  1340  079D  00B6               	movwf	??_main^(0+128)
  1341  079E  0836               	movf	??_main^(0+128),w
  1342  079F  1283               	bcf	3,5	;RP0=0, select bank0
  1343  07A0  1303               	bcf	3,6	;RP1=0, select bank0
  1344  07A1  00EC               	movwf	LCD_num@col
  1345  07A2  1683               	bsf	3,5	;RP0=1, select bank1
  1346  07A3  1303               	bcf	3,6	;RP1=0, select bank1
  1347  07A4  082D               	movf	(low ((_value| 0+1)))^(0+128),w
  1348  07A5  120A  118A  202D  120A  118A  	fcall	fptable
  1349  07AA  1283               	bcf	3,5	;RP0=0, select bank0
  1350  07AB  1303               	bcf	3,6	;RP1=0, select bank0
  1351  07AC  0821               	movf	?_kelvin_value+1,w
  1352  07AD  00EE               	movwf	LCD_num@num+1
  1353  07AE  0820               	movf	?_kelvin_value,w
  1354  07AF  00ED               	movwf	LCD_num@num
  1355  07B0  3003               	movlw	3
  1356  07B1  1683               	bsf	3,5	;RP0=1, select bank1
  1357  07B2  1303               	bcf	3,6	;RP1=0, select bank1
  1358  07B3  00B7               	movwf	(??_main+1)^(0+128)
  1359  07B4  0837               	movf	(??_main+1)^(0+128),w
  1360  07B5  1283               	bcf	3,5	;RP0=0, select bank0
  1361  07B6  1303               	bcf	3,6	;RP1=0, select bank0
  1362  07B7  00EF               	movwf	LCD_num@tam
  1363  07B8  1683               	bsf	3,5	;RP0=1, select bank1
  1364  07B9  1303               	bcf	3,6	;RP1=0, select bank1
  1365  07BA  0823               	movf	(low ((_print| 0+3)))^(0+128),w
  1366  07BB  120A  118A  202D  120A  118A  	fcall	fptable
  1367  07C0                     l2676:
  1368                           
  1369                           ;main.c: 26:           print.number(1, 12,(signed) value.Fahrenheit(),3);
  1370  07C0  1283               	bcf	3,5	;RP0=0, select bank0
  1371  07C1  1303               	bcf	3,6	;RP1=0, select bank0
  1372  07C2  01EB               	clrf	LCD_num@lin
  1373  07C3  0AEB               	incf	LCD_num@lin,f
  1374  07C4  300C               	movlw	12
  1375  07C5  1683               	bsf	3,5	;RP0=1, select bank1
  1376  07C6  1303               	bcf	3,6	;RP1=0, select bank1
  1377  07C7  00B6               	movwf	??_main^(0+128)
  1378  07C8  0836               	movf	??_main^(0+128),w
  1379  07C9  1283               	bcf	3,5	;RP0=0, select bank0
  1380  07CA  1303               	bcf	3,6	;RP1=0, select bank0
  1381  07CB  00EC               	movwf	LCD_num@col
  1382  07CC  1683               	bsf	3,5	;RP0=1, select bank1
  1383  07CD  1303               	bcf	3,6	;RP1=0, select bank1
  1384  07CE  082E               	movf	(low ((_value| 0+2)))^(0+128),w
  1385  07CF  120A  118A  202D  120A  118A  	fcall	fptable
  1386  07D4  1283               	bcf	3,5	;RP0=0, select bank0
  1387  07D5  1303               	bcf	3,6	;RP1=0, select bank0
  1388  07D6  0868               	movf	?_Fahrenheit_value+1,w
  1389  07D7  00EE               	movwf	LCD_num@num+1
  1390  07D8  0867               	movf	?_Fahrenheit_value,w
  1391  07D9  00ED               	movwf	LCD_num@num
  1392  07DA  3003               	movlw	3
  1393  07DB  1683               	bsf	3,5	;RP0=1, select bank1
  1394  07DC  1303               	bcf	3,6	;RP1=0, select bank1
  1395  07DD  00B7               	movwf	(??_main+1)^(0+128)
  1396  07DE  0837               	movf	(??_main+1)^(0+128),w
  1397  07DF  1283               	bcf	3,5	;RP0=0, select bank0
  1398  07E0  1303               	bcf	3,6	;RP1=0, select bank0
  1399  07E1  00EF               	movwf	LCD_num@tam
  1400  07E2  1683               	bsf	3,5	;RP0=1, select bank1
  1401  07E3  1303               	bcf	3,6	;RP1=0, select bank1
  1402  07E4  0823               	movf	(low ((_print| 0+3)))^(0+128),w
  1403  07E5  120A  118A  202D  120A  118A  	fcall	fptable
  1404  07EA  2F73               	goto	l2672
  1405  07EB  120A  118A  280C   	ljmp	start
  1406  07EE                     __end_of_main:
  1407                           
  1408                           	psect	text1
  1409  0B67                     __ptext1:	
  1410 ;; *************** function _kelvin_value *****************
  1411 ;; Defined at:
  1412 ;;		line 25 in file "conversion_sensor.c"
  1413 ;; Parameters:    Size  Location     Type
  1414 ;;		None
  1415 ;; Auto vars:     Size  Location     Type
  1416 ;;  kelvin_value    2    2[BANK0 ] int 
  1417 ;; Return value:  Size  Location     Type
  1418 ;;                  2    0[BANK0 ] unsigned int 
  1419 ;; Registers used:
  1420 ;;		wreg, status,2, status,0
  1421 ;; Tracked objects:
  1422 ;;		On entry : 0/0
  1423 ;;		On exit  : 0/0
  1424 ;;		Unchanged: 0/0
  1425 ;; Data sizes:     COMMON   BANK0   BANK1   BANK3   BANK2
  1426 ;;      Params:         0       2       0       0       0
  1427 ;;      Locals:         0       2       0       0       0
  1428 ;;      Temps:          0       0       0       0       0
  1429 ;;      Totals:         0       4       0       0       0
  1430 ;;Total ram usage:        4 bytes
  1431 ;; Hardware stack levels used: 1
  1432 ;; Hardware stack levels required when called: 2
  1433 ;; This function calls:
  1434 ;;		Nothing
  1435 ;; This function is called by:
  1436 ;;		_main
  1437 ;; This function uses a non-reentrant model
  1438 ;;
  1439                           
  1440                           
  1441                           ;psect for function _kelvin_value
  1442  0B67                     _kelvin_value:
  1443  0B67                     l2584:	
  1444                           ;incstack = 0
  1445                           ; Regs used in _kelvin_value: [wreg+status,2+status,0]
  1446                           
  1447                           
  1448                           ;conversion_sensor.c: 28:     int kelvin_value = var_value + 273;
  1449  0B67  0872               	movf	_var_value,w
  1450  0B68  3E11               	addlw	17
  1451  0B69  1283               	bcf	3,5	;RP0=0, select bank0
  1452  0B6A  1303               	bcf	3,6	;RP1=0, select bank0
  1453  0B6B  00A2               	movwf	kelvin_value@kelvin_value
  1454  0B6C  0873               	movf	_var_value+1,w
  1455  0B6D  1803               	skipnc
  1456  0B6E  3E01               	addlw	1
  1457  0B6F  3E01               	addlw	1
  1458  0B70  00A3               	movwf	kelvin_value@kelvin_value+1
  1459  0B71                     l2586:
  1460                           
  1461                           ;conversion_sensor.c: 30:     return(kelvin_value);
  1462  0B71  0823               	movf	kelvin_value@kelvin_value+1,w
  1463  0B72  00A1               	movwf	?_kelvin_value+1
  1464  0B73  0822               	movf	kelvin_value@kelvin_value,w
  1465  0B74  00A0               	movwf	?_kelvin_value
  1466  0B75                     l52:
  1467  0B75  0008               	return
  1468  0B76                     __end_of_kelvin_value:
  1469                           
  1470                           	psect	text2
  1471  0D7A                     __ptext2:	
  1472 ;; *************** function _celsius_value *****************
  1473 ;; Defined at:
  1474 ;;		line 15 in file "conversion_sensor.c"
  1475 ;; Parameters:    Size  Location     Type
  1476 ;;		None
  1477 ;; Auto vars:     Size  Location     Type
  1478 ;;  celsius_valu    2   73[BANK0 ] int 
  1479 ;; Return value:  Size  Location     Type
  1480 ;;                  2   71[BANK0 ] unsigned int 
  1481 ;; Registers used:
  1482 ;;		wreg, status,2, status,0, btemp+1, pclath, cstack
  1483 ;; Tracked objects:
  1484 ;;		On entry : 0/0
  1485 ;;		On exit  : 0/0
  1486 ;;		Unchanged: 0/0
  1487 ;; Data sizes:     COMMON   BANK0   BANK1   BANK3   BANK2
  1488 ;;      Params:         0       2       0       0       0
  1489 ;;      Locals:         0       2       0       0       0
  1490 ;;      Temps:          0       0       0       0       0
  1491 ;;      Totals:         0       4       0       0       0
  1492 ;;Total ram usage:        4 bytes
  1493 ;; Hardware stack levels used: 1
  1494 ;; Hardware stack levels required when called: 4
  1495 ;; This function calls:
  1496 ;;		___fladd
  1497 ;;		___flmul
  1498 ;;		___fltol
  1499 ;;		___xxtofl
  1500 ;;		_adc_value
  1501 ;; This function is called by:
  1502 ;;		_main
  1503 ;; This function uses a non-reentrant model
  1504 ;;
  1505                           
  1506                           
  1507                           ;psect for function _celsius_value
  1508  0D7A                     _celsius_value:
  1509  0D7A                     l2574:	
  1510                           ;incstack = 0
  1511                           ; Regs used in _celsius_value: [wreg+status,2+status,0+btemp+1+pclath+cstack]
  1512                           
  1513                           
  1514                           ;conversion_sensor.c: 17:     var_value = adc_value();
  1515  0D7A  120A  158A  2360  120A  158A  	fcall	_adc_value
  1516  0D7F  1283               	bcf	3,5	;RP0=0, select bank0
  1517  0D80  1303               	bcf	3,6	;RP1=0, select bank0
  1518  0D81  0821               	movf	?_adc_value+1,w
  1519  0D82  00F3               	movwf	_var_value+1
  1520  0D83  0820               	movf	?_adc_value,w
  1521  0D84  00F2               	movwf	_var_value
  1522  0D85                     l2576:
  1523                           
  1524                           ;conversion_sensor.c: 18:     var_value = (var_value * 0.0977517) - 50;
  1525  0D85  0872               	movf	_var_value,w
  1526  0D86  00A0               	movwf	___xxtofl@val
  1527  0D87  0873               	movf	_var_value+1,w
  1528  0D88  00A1               	movwf	___xxtofl@val+1
  1529  0D89  3000               	movlw	0
  1530  0D8A  1BA1               	btfsc	___xxtofl@val+1,7
  1531  0D8B  30FF               	movlw	255
  1532  0D8C  00A2               	movwf	___xxtofl@val+2
  1533  0D8D  00A3               	movwf	___xxtofl@val+3
  1534  0D8E  3001               	movlw	1
  1535  0D8F  120A  158A  2744  120A  158A  	fcall	___xxtofl
  1536  0D94  1283               	bcf	3,5	;RP0=0, select bank0
  1537  0D95  1303               	bcf	3,6	;RP1=0, select bank0
  1538  0D96  0823               	movf	?___xxtofl+3,w
  1539  0D97  00B5               	movwf	___flmul@a+3
  1540  0D98  0822               	movf	?___xxtofl+2,w
  1541  0D99  00B4               	movwf	___flmul@a+2
  1542  0D9A  0821               	movf	?___xxtofl+1,w
  1543  0D9B  00B3               	movwf	___flmul@a+1
  1544  0D9C  0820               	movf	?___xxtofl,w
  1545  0D9D  00B2               	movwf	___flmul@a
  1546  0D9E  303D               	movlw	61
  1547  0D9F  00B1               	movwf	___flmul@b+3
  1548  0DA0  30C8               	movlw	200
  1549  0DA1  00B0               	movwf	___flmul@b+2
  1550  0DA2  3032               	movlw	50
  1551  0DA3  00AF               	movwf	___flmul@b+1
  1552  0DA4  300B               	movlw	11
  1553  0DA5  00AE               	movwf	___flmul@b
  1554  0DA6  120A  118A  2045  120A  158A  	fcall	___flmul
  1555  0DAB  1283               	bcf	3,5	;RP0=0, select bank0
  1556  0DAC  1303               	bcf	3,6	;RP1=0, select bank0
  1557  0DAD  0831               	movf	?___flmul+3,w
  1558  0DAE  00CF               	movwf	___fladd@a+3
  1559  0DAF  0830               	movf	?___flmul+2,w
  1560  0DB0  00CE               	movwf	___fladd@a+2
  1561  0DB1  082F               	movf	?___flmul+1,w
  1562  0DB2  00CD               	movwf	___fladd@a+1
  1563  0DB3  082E               	movf	?___flmul,w
  1564  0DB4  00CC               	movwf	___fladd@a
  1565  0DB5  30C2               	movlw	194
  1566  0DB6  00CB               	movwf	___fladd@b+3
  1567  0DB7  3048               	movlw	72
  1568  0DB8  00CA               	movwf	___fladd@b+2
  1569  0DB9  3000               	movlw	0
  1570  0DBA  00C9               	movwf	___fladd@b+1
  1571  0DBB  3000               	movlw	0
  1572  0DBC  00C8               	movwf	___fladd@b
  1573  0DBD  120A  118A  23A6  120A  158A  	fcall	___fladd
  1574  0DC2  1283               	bcf	3,5	;RP0=0, select bank0
  1575  0DC3  1303               	bcf	3,6	;RP1=0, select bank0
  1576  0DC4  084B               	movf	?___fladd+3,w
  1577  0DC5  00DF               	movwf	___fltol@f1+3
  1578  0DC6  084A               	movf	?___fladd+2,w
  1579  0DC7  00DE               	movwf	___fltol@f1+2
  1580  0DC8  0849               	movf	?___fladd+1,w
  1581  0DC9  00DD               	movwf	___fltol@f1+1
  1582  0DCA  0848               	movf	?___fladd,w
  1583  0DCB  00DC               	movwf	___fltol@f1
  1584  0DCC  120A  158A  2649  120A  158A  	fcall	___fltol
  1585  0DD1  1283               	bcf	3,5	;RP0=0, select bank0
  1586  0DD2  1303               	bcf	3,6	;RP1=0, select bank0
  1587  0DD3  085D               	movf	?___fltol+1,w
  1588  0DD4  00F3               	movwf	_var_value+1
  1589  0DD5  085C               	movf	?___fltol,w
  1590  0DD6  00F2               	movwf	_var_value
  1591  0DD7                     l2578:
  1592                           
  1593                           ;conversion_sensor.c: 20:     int celsius_value = var_value;
  1594  0DD7  0873               	movf	_var_value+1,w
  1595  0DD8  00EA               	movwf	celsius_value@celsius_value+1
  1596  0DD9  0872               	movf	_var_value,w
  1597  0DDA  00E9               	movwf	celsius_value@celsius_value
  1598  0DDB                     l2580:
  1599                           
  1600                           ;conversion_sensor.c: 22:     return(celsius_value);
  1601  0DDB  086A               	movf	celsius_value@celsius_value+1,w
  1602  0DDC  00E8               	movwf	?_celsius_value+1
  1603  0DDD  0869               	movf	celsius_value@celsius_value,w
  1604  0DDE  00E7               	movwf	?_celsius_value
  1605  0DDF                     l49:
  1606  0DDF  0008               	return
  1607  0DE0                     __end_of_celsius_value:
  1608                           
  1609                           	psect	text3
  1610  0B60                     __ptext3:	
  1611 ;; *************** function _adc_value *****************
  1612 ;; Defined at:
  1613 ;;		line 44 in file "Analog_to_Digital.c"
  1614 ;; Parameters:    Size  Location     Type
  1615 ;;		None
  1616 ;; Auto vars:     Size  Location     Type
  1617 ;;		None
  1618 ;; Return value:  Size  Location     Type
  1619 ;;                  2    0[BANK0 ] unsigned int 
  1620 ;; Registers used:
  1621 ;;		wreg
  1622 ;; Tracked objects:
  1623 ;;		On entry : 0/0
  1624 ;;		On exit  : 0/0
  1625 ;;		Unchanged: 0/0
  1626 ;; Data sizes:     COMMON   BANK0   BANK1   BANK3   BANK2
  1627 ;;      Params:         0       2       0       0       0
  1628 ;;      Locals:         0       0       0       0       0
  1629 ;;      Temps:          0       0       0       0       0
  1630 ;;      Totals:         0       2       0       0       0
  1631 ;;Total ram usage:        2 bytes
  1632 ;; Hardware stack levels used: 1
  1633 ;; Hardware stack levels required when called: 2
  1634 ;; This function calls:
  1635 ;;		Nothing
  1636 ;; This function is called by:
  1637 ;;		_celsius_value
  1638 ;; This function uses a non-reentrant model
  1639 ;;
  1640                           
  1641                           
  1642                           ;psect for function _adc_value
  1643  0B60                     _adc_value:
  1644  0B60                     l2310:	
  1645                           ;incstack = 0
  1646                           ; Regs used in _adc_value: [wreg]
  1647                           
  1648                           
  1649                           ;Analog_to_Digital.c: 46:     return(read_value);
  1650  0B60  0875               	movf	_read_value+1,w
  1651  0B61  1283               	bcf	3,5	;RP0=0, select bank0
  1652  0B62  1303               	bcf	3,6	;RP1=0, select bank0
  1653  0B63  00A1               	movwf	?_adc_value+1
  1654  0B64  0874               	movf	_read_value,w
  1655  0B65  00A0               	movwf	?_adc_value
  1656  0B66                     l27:
  1657  0B66  0008               	return
  1658  0B67                     __end_of_adc_value:
  1659                           
  1660                           	psect	text4
  1661  0BE8                     __ptext4:	
  1662 ;; *************** function _adc_init *****************
  1663 ;; Defined at:
  1664 ;;		line 17 in file "Analog_to_Digital.c"
  1665 ;; Parameters:    Size  Location     Type
  1666 ;;		None
  1667 ;; Auto vars:     Size  Location     Type
  1668 ;;		None
  1669 ;; Return value:  Size  Location     Type
  1670 ;;                  1    wreg      void 
  1671 ;; Registers used:
  1672 ;;		wreg, status,2, status,0
  1673 ;; Tracked objects:
  1674 ;;		On entry : 0/0
  1675 ;;		On exit  : 0/0
  1676 ;;		Unchanged: 0/0
  1677 ;; Data sizes:     COMMON   BANK0   BANK1   BANK3   BANK2
  1678 ;;      Params:         0       0       0       0       0
  1679 ;;      Locals:         0       0       0       0       0
  1680 ;;      Temps:          0       0       0       0       0
  1681 ;;      Totals:         0       0       0       0       0
  1682 ;;Total ram usage:        0 bytes
  1683 ;; Hardware stack levels used: 1
  1684 ;; Hardware stack levels required when called: 2
  1685 ;; This function calls:
  1686 ;;		Nothing
  1687 ;; This function is called by:
  1688 ;;		_main
  1689 ;; This function uses a non-reentrant model
  1690 ;;
  1691                           
  1692                           
  1693                           ;psect for function _adc_init
  1694  0BE8                     _adc_init:
  1695  0BE8                     l2556:	
  1696                           ;incstack = 0
  1697                           ; Regs used in _adc_init: [wreg+status,2+status,0]
  1698                           
  1699                           
  1700                           ;Analog_to_Digital.c: 19:     INTCONbits.GIE = 0;
  1701  0BE8  138B               	bcf	11,7	;volatile
  1702                           
  1703                           ;Analog_to_Digital.c: 21:     ANSELbits.ANS0 = 1;
  1704  0BE9  1683               	bsf	3,5	;RP0=1, select bank3
  1705  0BEA  1703               	bsf	3,6	;RP1=1, select bank3
  1706  0BEB  1408               	bsf	8,0	;volatile
  1707                           
  1708                           ;Analog_to_Digital.c: 22:     ADCON1bits.VCFG0 = 0;
  1709  0BEC  1683               	bsf	3,5	;RP0=1, select bank1
  1710  0BED  1303               	bcf	3,6	;RP1=0, select bank1
  1711  0BEE  121F               	bcf	31,4	;volatile
  1712                           
  1713                           ;Analog_to_Digital.c: 23:     ADCON1bits.VCFG1 = 0;
  1714  0BEF  129F               	bcf	31,5	;volatile
  1715                           
  1716                           ;Analog_to_Digital.c: 24:     ADCON1bits.ADFM = 1;
  1717  0BF0  179F               	bsf	31,7	;volatile
  1718  0BF1                     l2558:
  1719                           
  1720                           ;Analog_to_Digital.c: 25:     ADCON0bits.ADCS = 0x2;
  1721  0BF1  1283               	bcf	3,5	;RP0=0, select bank0
  1722  0BF2  1303               	bcf	3,6	;RP1=0, select bank0
  1723  0BF3  081F               	movf	31,w	;volatile
  1724  0BF4  393F               	andlw	-193
  1725  0BF5  3880               	iorlw	128
  1726  0BF6  009F               	movwf	31	;volatile
  1727                           
  1728                           ;Analog_to_Digital.c: 26:     ADCON0bits.CHS = 0x0;
  1729  0BF7  30C3               	movlw	-61
  1730  0BF8  059F               	andwf	31,f	;volatile
  1731  0BF9                     l2560:
  1732                           
  1733                           ;Analog_to_Digital.c: 27:     ADRESH = 0;
  1734  0BF9  019E               	clrf	30	;volatile
  1735  0BFA                     l2562:
  1736                           
  1737                           ;Analog_to_Digital.c: 28:     ADRESL = 0;
  1738  0BFA  1683               	bsf	3,5	;RP0=1, select bank1
  1739  0BFB  1303               	bcf	3,6	;RP1=0, select bank1
  1740  0BFC  019E               	clrf	30	;volatile
  1741  0BFD                     l2564:
  1742                           
  1743                           ;Analog_to_Digital.c: 29:     ADCON0bits.ADON = 1;
  1744  0BFD  1283               	bcf	3,5	;RP0=0, select bank0
  1745  0BFE  1303               	bcf	3,6	;RP1=0, select bank0
  1746  0BFF  141F               	bsf	31,0	;volatile
  1747  0C00                     l2566:
  1748                           
  1749                           ;Analog_to_Digital.c: 30:     INTCONbits.PEIE = 1;
  1750  0C00  170B               	bsf	11,6	;volatile
  1751  0C01                     l2568:
  1752                           
  1753                           ;Analog_to_Digital.c: 31:     PIE1bits.ADIE = 1;
  1754  0C01  1683               	bsf	3,5	;RP0=1, select bank1
  1755  0C02  1303               	bcf	3,6	;RP1=0, select bank1
  1756  0C03  170C               	bsf	12,6	;volatile
  1757  0C04                     l2570:
  1758                           
  1759                           ;Analog_to_Digital.c: 32:     INTCONbits.GIE = 1;
  1760  0C04  178B               	bsf	11,7	;volatile
  1761  0C05                     l2572:
  1762                           
  1763                           ;Analog_to_Digital.c: 33:     ADCON0bits.GO = 1;
  1764  0C05  1283               	bcf	3,5	;RP0=0, select bank0
  1765  0C06  1303               	bcf	3,6	;RP1=0, select bank0
  1766  0C07  149F               	bsf	31,1	;volatile
  1767  0C08                     l21:
  1768  0C08  0008               	return
  1769  0C09                     __end_of_adc_init:
  1770                           
  1771                           	psect	text5
  1772  062E                     __ptext5:	
  1773 ;; *************** function _LCD_num *****************
  1774 ;; Defined at:
  1775 ;;		line 207 in file "dispLCD4vias.c"
  1776 ;; Parameters:    Size  Location     Type
  1777 ;;  lin             1   75[BANK0 ] unsigned char 
  1778 ;;  col             1   76[BANK0 ] unsigned char 
  1779 ;;  num             2   77[BANK0 ] int 
  1780 ;;  tam             1   79[BANK0 ] unsigned char 
  1781 ;; Auto vars:     Size  Location     Type
  1782 ;;  div             2    5[BANK1 ] int 
  1783 ;;  sinal           1    4[BANK1 ] unsigned char 
  1784 ;;  size            1    3[BANK1 ] unsigned char 
  1785 ;; Return value:  Size  Location     Type
  1786 ;;                  1    wreg      void 
  1787 ;; Registers used:
  1788 ;;		wreg, status,2, status,0, btemp+1, pclath, cstack
  1789 ;; Tracked objects:
  1790 ;;		On entry : 0/0
  1791 ;;		On exit  : 0/0
  1792 ;;		Unchanged: 0/0
  1793 ;; Data sizes:     COMMON   BANK0   BANK1   BANK3   BANK2
  1794 ;;      Params:         0       5       0       0       0
  1795 ;;      Locals:         0       0       4       0       0
  1796 ;;      Temps:          0       0       3       0       0
  1797 ;;      Totals:         0       5       7       0       0
  1798 ;;Total ram usage:       12 bytes
  1799 ;; Hardware stack levels used: 1
  1800 ;; Hardware stack levels required when called: 4
  1801 ;; This function calls:
  1802 ;;		___awdiv
  1803 ;;		___awmod
  1804 ;;		_dispLCD_dataReg
  1805 ;;		_dispLCD_lincol
  1806 ;; This function is called by:
  1807 ;;		_main
  1808 ;; This function uses a non-reentrant model
  1809 ;;
  1810                           
  1811                           
  1812                           ;psect for function _LCD_num
  1813  062E                     _LCD_num:
  1814  062E                     l2622:	
  1815                           ;incstack = 0
  1816                           ; Regs used in _LCD_num: [wreg+status,2+status,0+btemp+1+pclath+cstack]
  1817                           
  1818                           
  1819                           ;dispLCD4vias.c: 207: void LCD_num( unsigned char lin, unsigned char col,;dispLCD4vias.c
      +                          : 208:                     int num, unsigned char tam );dispLCD4vias.c: 209: {;dispLCD4v
      +                          ias.c: 210:     int div;;dispLCD4vias.c: 211:     unsigned char size;;dispLCD4vias.c: 21
      +                          2:     char sinal;;dispLCD4vias.c: 214:     sinal = num < 0;
  1820  062E  1283               	bcf	3,5	;RP0=0, select bank0
  1821  062F  1303               	bcf	3,6	;RP1=0, select bank0
  1822  0630  1BEE               	btfsc	LCD_num@num+1,7
  1823  0631  2E33               	goto	u3741
  1824  0632  2E35               	goto	u3740
  1825  0633                     u3741:
  1826  0633  3001               	movlw	1
  1827  0634  2E36               	goto	u3750
  1828  0635                     u3740:
  1829  0635  3000               	movlw	0
  1830  0636                     u3750:
  1831  0636  1683               	bsf	3,5	;RP0=1, select bank1
  1832  0637  1303               	bcf	3,6	;RP1=0, select bank1
  1833  0638  00AF               	movwf	??_LCD_num^(0+128)
  1834  0639  082F               	movf	??_LCD_num^(0+128),w
  1835  063A  00B3               	movwf	LCD_num@sinal^(0+128)
  1836  063B                     l2624:
  1837                           
  1838                           ;dispLCD4vias.c: 215:     if( sinal )
  1839  063B  0833               	movf	LCD_num@sinal^(0+128),w
  1840  063C  1903               	btfsc	3,2
  1841  063D  2E3F               	goto	u3761
  1842  063E  2E40               	goto	u3760
  1843  063F                     u3761:
  1844  063F  2E47               	goto	l2628
  1845  0640                     u3760:
  1846  0640                     l2626:
  1847                           
  1848                           ;dispLCD4vias.c: 216:         num = (~num) + 1;
  1849  0640  1283               	bcf	3,5	;RP0=0, select bank0
  1850  0641  1303               	bcf	3,6	;RP1=0, select bank0
  1851  0642  09ED               	comf	LCD_num@num,f
  1852  0643  09EE               	comf	LCD_num@num+1,f
  1853  0644  0AED               	incf	LCD_num@num,f
  1854  0645  1903               	skipnz
  1855  0646  0AEE               	incf	LCD_num@num+1,f
  1856  0647                     l2628:
  1857                           
  1858                           ;dispLCD4vias.c: 218:     dispLCD_lincol(lin, col);
  1859  0647  1283               	bcf	3,5	;RP0=0, select bank0
  1860  0648  086C               	movf	LCD_num@col,w
  1861  0649  1683               	bsf	3,5	;RP0=1, select bank1
  1862  064A  1303               	bcf	3,6	;RP1=0, select bank1
  1863  064B  00AF               	movwf	??_LCD_num^(0+128)
  1864  064C  082F               	movf	??_LCD_num^(0+128),w
  1865  064D  1283               	bcf	3,5	;RP0=0, select bank0
  1866  064E  1303               	bcf	3,6	;RP1=0, select bank0
  1867  064F  00A3               	movwf	dispLCD_lincol@col
  1868  0650  086B               	movf	LCD_num@lin,w
  1869  0651  120A  158A  2398  120A  118A  	fcall	_dispLCD_lincol
  1870  0656                     l2630:
  1871                           
  1872                           ;dispLCD4vias.c: 220:     div=10000;
  1873  0656  3010               	movlw	16
  1874  0657  1683               	bsf	3,5	;RP0=1, select bank1
  1875  0658  1303               	bcf	3,6	;RP1=0, select bank1
  1876  0659  00B4               	movwf	LCD_num@div^(0+128)
  1877  065A  3027               	movlw	39
  1878  065B  00B5               	movwf	(LCD_num@div^(0+128)+1)
  1879  065C                     l2632:
  1880                           
  1881                           ;dispLCD4vias.c: 221:     size = 5;
  1882  065C  3005               	movlw	5
  1883  065D  00AF               	movwf	??_LCD_num^(0+128)
  1884  065E  082F               	movf	??_LCD_num^(0+128),w
  1885  065F  00B2               	movwf	LCD_num@size^(0+128)
  1886                           
  1887                           ;dispLCD4vias.c: 222:     while( div >= 1 )
  1888  0660  2EA5               	goto	l2640
  1889  0661                     l2634:
  1890                           
  1891                           ;dispLCD4vias.c: 223:     {;dispLCD4vias.c: 224:         if( num/div == 0 )
  1892  0661  1683               	bsf	3,5	;RP0=1, select bank1
  1893  0662  1303               	bcf	3,6	;RP1=0, select bank1
  1894  0663  0835               	movf	(LCD_num@div+1)^(0+128),w
  1895  0664  1283               	bcf	3,5	;RP0=0, select bank0
  1896  0665  1303               	bcf	3,6	;RP1=0, select bank0
  1897  0666  00A1               	movwf	___awdiv@divisor+1
  1898  0667  1683               	bsf	3,5	;RP0=1, select bank1
  1899  0668  1303               	bcf	3,6	;RP1=0, select bank1
  1900  0669  0834               	movf	LCD_num@div^(0+128),w
  1901  066A  1283               	bcf	3,5	;RP0=0, select bank0
  1902  066B  1303               	bcf	3,6	;RP1=0, select bank0
  1903  066C  00A0               	movwf	___awdiv@divisor
  1904  066D  086E               	movf	LCD_num@num+1,w
  1905  066E  00A3               	movwf	___awdiv@dividend+1
  1906  066F  086D               	movf	LCD_num@num,w
  1907  0670  00A2               	movwf	___awdiv@dividend
  1908  0671  120A  158A  25E0  120A  118A  	fcall	___awdiv
  1909  0676  1283               	bcf	3,5	;RP0=0, select bank0
  1910  0677  1303               	bcf	3,6	;RP1=0, select bank0
  1911  0678  0820               	movf	?___awdiv,w
  1912  0679  0421               	iorwf	?___awdiv+1,w
  1913  067A  1D03               	btfss	3,2
  1914  067B  2E7D               	goto	u3771
  1915  067C  2E7E               	goto	u3770
  1916  067D                     u3771:
  1917  067D  2EBD               	goto	l2646
  1918  067E                     u3770:
  1919  067E                     l2636:
  1920                           
  1921                           ;dispLCD4vias.c: 225:             --size;
  1922  067E  3001               	movlw	1
  1923  067F  1683               	bsf	3,5	;RP0=1, select bank1
  1924  0680  1303               	bcf	3,6	;RP1=0, select bank1
  1925  0681  02B2               	subwf	LCD_num@size^(0+128),f
  1926  0682                     l2638:
  1927                           
  1928                           ;dispLCD4vias.c: 228:         div/=10;
  1929  0682  300A               	movlw	10
  1930  0683  1283               	bcf	3,5	;RP0=0, select bank0
  1931  0684  1303               	bcf	3,6	;RP1=0, select bank0
  1932  0685  00A0               	movwf	___awdiv@divisor
  1933  0686  3000               	movlw	0
  1934  0687  00A1               	movwf	___awdiv@divisor+1
  1935  0688  1683               	bsf	3,5	;RP0=1, select bank1
  1936  0689  1303               	bcf	3,6	;RP1=0, select bank1
  1937  068A  0835               	movf	(LCD_num@div+1)^(0+128),w
  1938  068B  1283               	bcf	3,5	;RP0=0, select bank0
  1939  068C  1303               	bcf	3,6	;RP1=0, select bank0
  1940  068D  00A3               	movwf	___awdiv@dividend+1
  1941  068E  1683               	bsf	3,5	;RP0=1, select bank1
  1942  068F  1303               	bcf	3,6	;RP1=0, select bank1
  1943  0690  0834               	movf	LCD_num@div^(0+128),w
  1944  0691  1283               	bcf	3,5	;RP0=0, select bank0
  1945  0692  1303               	bcf	3,6	;RP1=0, select bank0
  1946  0693  00A2               	movwf	___awdiv@dividend
  1947  0694  120A  158A  25E0  120A  118A  	fcall	___awdiv
  1948  0699  1283               	bcf	3,5	;RP0=0, select bank0
  1949  069A  1303               	bcf	3,6	;RP1=0, select bank0
  1950  069B  0821               	movf	?___awdiv+1,w
  1951  069C  1683               	bsf	3,5	;RP0=1, select bank1
  1952  069D  1303               	bcf	3,6	;RP1=0, select bank1
  1953  069E  00B5               	movwf	(LCD_num@div+1)^(0+128)
  1954  069F  1283               	bcf	3,5	;RP0=0, select bank0
  1955  06A0  1303               	bcf	3,6	;RP1=0, select bank0
  1956  06A1  0820               	movf	?___awdiv,w
  1957  06A2  1683               	bsf	3,5	;RP0=1, select bank1
  1958  06A3  1303               	bcf	3,6	;RP1=0, select bank1
  1959  06A4  00B4               	movwf	LCD_num@div^(0+128)
  1960  06A5                     l2640:
  1961                           
  1962                           ;dispLCD4vias.c: 222:     while( div >= 1 )
  1963  06A5  0835               	movf	(LCD_num@div+1)^(0+128),w
  1964  06A6  3A80               	xorlw	128
  1965  06A7  00FF               	movwf	btemp+1
  1966  06A8  3080               	movlw	128
  1967  06A9  027F               	subwf	btemp+1,w
  1968  06AA  1D03               	skipz
  1969  06AB  2EAE               	goto	u3785
  1970  06AC  3001               	movlw	1
  1971  06AD  0234               	subwf	LCD_num@div^(0+128),w
  1972  06AE                     u3785:
  1973  06AE  1803               	skipnc
  1974  06AF  2EB1               	goto	u3781
  1975  06B0  2EB2               	goto	u3780
  1976  06B1                     u3781:
  1977  06B1  2E61               	goto	l2634
  1978  06B2                     u3780:
  1979  06B2  2EBD               	goto	l2646
  1980  06B3                     l2642:
  1981                           
  1982                           ;dispLCD4vias.c: 232:     {;dispLCD4vias.c: 233:         dispLCD_dataReg(' ');
  1983  06B3  3020               	movlw	32
  1984  06B4  120A  158A  245F  120A  118A  	fcall	_dispLCD_dataReg
  1985  06B9                     l2644:
  1986                           
  1987                           ;dispLCD4vias.c: 234:         --tam;
  1988  06B9  3001               	movlw	1
  1989  06BA  1283               	bcf	3,5	;RP0=0, select bank0
  1990  06BB  1303               	bcf	3,6	;RP1=0, select bank0
  1991  06BC  02EF               	subwf	LCD_num@tam,f
  1992  06BD                     l2646:
  1993                           
  1994                           ;dispLCD4vias.c: 231:     while( tam > (size+sinal) && tam > 1 )
  1995  06BD  1683               	bsf	3,5	;RP0=1, select bank1
  1996  06BE  1303               	bcf	3,6	;RP1=0, select bank1
  1997  06BF  0832               	movf	LCD_num@size^(0+128),w
  1998  06C0  0733               	addwf	LCD_num@sinal^(0+128),w
  1999  06C1  00AF               	movwf	??_LCD_num^(0+128)
  2000  06C2  01B0               	clrf	(??_LCD_num^(0+128)+1)
  2001  06C3  0DB0               	rlf	(??_LCD_num+1)^(0+128),f
  2002  06C4  0830               	movf	(??_LCD_num+1)^(0+128),w
  2003  06C5  3A80               	xorlw	128
  2004  06C6  00B1               	movwf	(??_LCD_num+2)^(0+128)
  2005  06C7  3080               	movlw	128
  2006  06C8  0231               	subwf	(??_LCD_num+2)^(0+128),w
  2007  06C9  1D03               	skipz
  2008  06CA  2ED1               	goto	u3795
  2009  06CB  1283               	bcf	3,5	;RP0=0, select bank0
  2010  06CC  1303               	bcf	3,6	;RP1=0, select bank0
  2011  06CD  086F               	movf	LCD_num@tam,w
  2012  06CE  1683               	bsf	3,5	;RP0=1, select bank1
  2013  06CF  1303               	bcf	3,6	;RP1=0, select bank1
  2014  06D0  022F               	subwf	??_LCD_num^(0+128),w
  2015  06D1                     u3795:
  2016  06D1  1803               	skipnc
  2017  06D2  2ED4               	goto	u3791
  2018  06D3  2ED5               	goto	u3790
  2019  06D4                     u3791:
  2020  06D4  2EDD               	goto	l2650
  2021  06D5                     u3790:
  2022  06D5                     l2648:
  2023  06D5  3002               	movlw	2
  2024  06D6  1283               	bcf	3,5	;RP0=0, select bank0
  2025  06D7  1303               	bcf	3,6	;RP1=0, select bank0
  2026  06D8  026F               	subwf	LCD_num@tam,w
  2027  06D9  1803               	skipnc
  2028  06DA  2EDC               	goto	u3801
  2029  06DB  2EDD               	goto	u3800
  2030  06DC                     u3801:
  2031  06DC  2EB3               	goto	l2642
  2032  06DD                     u3800:
  2033  06DD                     l2650:
  2034                           
  2035                           ;dispLCD4vias.c: 237:     if( sinal )
  2036  06DD  1683               	bsf	3,5	;RP0=1, select bank1
  2037  06DE  1303               	bcf	3,6	;RP1=0, select bank1
  2038  06DF  0833               	movf	LCD_num@sinal^(0+128),w
  2039  06E0  1903               	btfsc	3,2
  2040  06E1  2EE3               	goto	u3811
  2041  06E2  2EE4               	goto	u3810
  2042  06E3                     u3811:
  2043  06E3  2EEA               	goto	l124
  2044  06E4                     u3810:
  2045  06E4                     l2652:
  2046                           
  2047                           ;dispLCD4vias.c: 238:         dispLCD_dataReg('-');
  2048  06E4  302D               	movlw	45
  2049  06E5  120A  158A  245F  120A  118A  	fcall	_dispLCD_dataReg
  2050  06EA                     l124:	
  2051                           ;dispLCD4vias.c: 240:     do
  2052                           
  2053                           
  2054                           ;dispLCD4vias.c: 241:     {;dispLCD4vias.c: 242:         dispLCD_dataReg( (num / div) + 
      +                          '0' );
  2055  06EA  1683               	bsf	3,5	;RP0=1, select bank1
  2056  06EB  1303               	bcf	3,6	;RP1=0, select bank1
  2057  06EC  0835               	movf	(LCD_num@div+1)^(0+128),w
  2058  06ED  1283               	bcf	3,5	;RP0=0, select bank0
  2059  06EE  1303               	bcf	3,6	;RP1=0, select bank0
  2060  06EF  00A1               	movwf	___awdiv@divisor+1
  2061  06F0  1683               	bsf	3,5	;RP0=1, select bank1
  2062  06F1  1303               	bcf	3,6	;RP1=0, select bank1
  2063  06F2  0834               	movf	LCD_num@div^(0+128),w
  2064  06F3  1283               	bcf	3,5	;RP0=0, select bank0
  2065  06F4  1303               	bcf	3,6	;RP1=0, select bank0
  2066  06F5  00A0               	movwf	___awdiv@divisor
  2067  06F6  086E               	movf	LCD_num@num+1,w
  2068  06F7  00A3               	movwf	___awdiv@dividend+1
  2069  06F8  086D               	movf	LCD_num@num,w
  2070  06F9  00A2               	movwf	___awdiv@dividend
  2071  06FA  120A  158A  25E0  120A  118A  	fcall	___awdiv
  2072  06FF  1283               	bcf	3,5	;RP0=0, select bank0
  2073  0700  1303               	bcf	3,6	;RP1=0, select bank0
  2074  0701  0820               	movf	?___awdiv,w
  2075  0702  3E30               	addlw	48
  2076  0703  120A  158A  245F  120A  118A  	fcall	_dispLCD_dataReg
  2077                           
  2078                           ;dispLCD4vias.c: 243:         num = num % div;
  2079  0708  1683               	bsf	3,5	;RP0=1, select bank1
  2080  0709  1303               	bcf	3,6	;RP1=0, select bank1
  2081  070A  0835               	movf	(LCD_num@div+1)^(0+128),w
  2082  070B  1283               	bcf	3,5	;RP0=0, select bank0
  2083  070C  1303               	bcf	3,6	;RP1=0, select bank0
  2084  070D  00A1               	movwf	___awmod@divisor+1
  2085  070E  1683               	bsf	3,5	;RP0=1, select bank1
  2086  070F  1303               	bcf	3,6	;RP1=0, select bank1
  2087  0710  0834               	movf	LCD_num@div^(0+128),w
  2088  0711  1283               	bcf	3,5	;RP0=0, select bank0
  2089  0712  1303               	bcf	3,6	;RP1=0, select bank0
  2090  0713  00A0               	movwf	___awmod@divisor
  2091  0714  086E               	movf	LCD_num@num+1,w
  2092  0715  00A3               	movwf	___awmod@dividend+1
  2093  0716  086D               	movf	LCD_num@num,w
  2094  0717  00A2               	movwf	___awmod@dividend
  2095  0718  120A  158A  251F  120A  118A  	fcall	___awmod
  2096  071D  1283               	bcf	3,5	;RP0=0, select bank0
  2097  071E  1303               	bcf	3,6	;RP1=0, select bank0
  2098  071F  0821               	movf	?___awmod+1,w
  2099  0720  00EE               	movwf	LCD_num@num+1
  2100  0721  0820               	movf	?___awmod,w
  2101  0722  00ED               	movwf	LCD_num@num
  2102                           
  2103                           ;dispLCD4vias.c: 244:         div/=10;
  2104  0723  300A               	movlw	10
  2105  0724  00A0               	movwf	___awdiv@divisor
  2106  0725  3000               	movlw	0
  2107  0726  00A1               	movwf	___awdiv@divisor+1
  2108  0727  1683               	bsf	3,5	;RP0=1, select bank1
  2109  0728  1303               	bcf	3,6	;RP1=0, select bank1
  2110  0729  0835               	movf	(LCD_num@div+1)^(0+128),w
  2111  072A  1283               	bcf	3,5	;RP0=0, select bank0
  2112  072B  1303               	bcf	3,6	;RP1=0, select bank0
  2113  072C  00A3               	movwf	___awdiv@dividend+1
  2114  072D  1683               	bsf	3,5	;RP0=1, select bank1
  2115  072E  1303               	bcf	3,6	;RP1=0, select bank1
  2116  072F  0834               	movf	LCD_num@div^(0+128),w
  2117  0730  1283               	bcf	3,5	;RP0=0, select bank0
  2118  0731  1303               	bcf	3,6	;RP1=0, select bank0
  2119  0732  00A2               	movwf	___awdiv@dividend
  2120  0733  120A  158A  25E0  120A  118A  	fcall	___awdiv
  2121  0738  1283               	bcf	3,5	;RP0=0, select bank0
  2122  0739  1303               	bcf	3,6	;RP1=0, select bank0
  2123  073A  0821               	movf	?___awdiv+1,w
  2124  073B  1683               	bsf	3,5	;RP0=1, select bank1
  2125  073C  1303               	bcf	3,6	;RP1=0, select bank1
  2126  073D  00B5               	movwf	(LCD_num@div+1)^(0+128)
  2127  073E  1283               	bcf	3,5	;RP0=0, select bank0
  2128  073F  1303               	bcf	3,6	;RP1=0, select bank0
  2129  0740  0820               	movf	?___awdiv,w
  2130  0741  1683               	bsf	3,5	;RP0=1, select bank1
  2131  0742  1303               	bcf	3,6	;RP1=0, select bank1
  2132  0743  00B4               	movwf	LCD_num@div^(0+128)
  2133  0744                     l2654:
  2134                           
  2135                           ;dispLCD4vias.c: 245:     }
  2136  0744  0835               	movf	(LCD_num@div+1)^(0+128),w
  2137  0745  3A80               	xorlw	128
  2138  0746  00FF               	movwf	btemp+1
  2139  0747  3080               	movlw	128
  2140  0748  027F               	subwf	btemp+1,w
  2141  0749  1D03               	skipz
  2142  074A  2F4D               	goto	u3825
  2143  074B  3001               	movlw	1
  2144  074C  0234               	subwf	LCD_num@div^(0+128),w
  2145  074D                     u3825:
  2146  074D  1803               	skipnc
  2147  074E  2F50               	goto	u3821
  2148  074F  2F51               	goto	u3820
  2149  0750                     u3821:
  2150  0750  2EEA               	goto	l124
  2151  0751                     u3820:
  2152  0751                     l126:
  2153  0751  0008               	return
  2154  0752                     __end_of_LCD_num:
  2155                           
  2156                           	psect	text6
  2157  0D1F                     __ptext6:	
  2158 ;; *************** function ___awmod *****************
  2159 ;; Defined at:
  2160 ;;		line 5 in file "C:\Program Files\Microchip\xc8\v2.32\pic\sources\c90\common\awmod.c"
  2161 ;; Parameters:    Size  Location     Type
  2162 ;;  divisor         2    0[BANK0 ] int 
  2163 ;;  dividend        2    2[BANK0 ] int 
  2164 ;; Auto vars:     Size  Location     Type
  2165 ;;  sign            1    6[BANK0 ] unsigned char 
  2166 ;;  counter         1    5[BANK0 ] unsigned char 
  2167 ;; Return value:  Size  Location     Type
  2168 ;;                  2    0[BANK0 ] int 
  2169 ;; Registers used:
  2170 ;;		wreg, status,2, status,0
  2171 ;; Tracked objects:
  2172 ;;		On entry : 0/0
  2173 ;;		On exit  : 0/0
  2174 ;;		Unchanged: 0/0
  2175 ;; Data sizes:     COMMON   BANK0   BANK1   BANK3   BANK2
  2176 ;;      Params:         0       4       0       0       0
  2177 ;;      Locals:         0       2       0       0       0
  2178 ;;      Temps:          0       1       0       0       0
  2179 ;;      Totals:         0       7       0       0       0
  2180 ;;Total ram usage:        7 bytes
  2181 ;; Hardware stack levels used: 1
  2182 ;; Hardware stack levels required when called: 2
  2183 ;; This function calls:
  2184 ;;		Nothing
  2185 ;; This function is called by:
  2186 ;;		_LCD_num
  2187 ;; This function uses a non-reentrant model
  2188 ;;
  2189                           
  2190                           
  2191                           ;psect for function ___awmod
  2192  0D1F                     ___awmod:
  2193  0D1F                     l2378:	
  2194                           ;incstack = 0
  2195                           ; Regs used in ___awmod: [wreg+status,2+status,0]
  2196                           
  2197  0D1F  1283               	bcf	3,5	;RP0=0, select bank0
  2198  0D20  1303               	bcf	3,6	;RP1=0, select bank0
  2199  0D21  01A6               	clrf	___awmod@sign
  2200  0D22                     l2380:
  2201  0D22  1FA3               	btfss	___awmod@dividend+1,7
  2202  0D23  2D25               	goto	u3271
  2203  0D24  2D26               	goto	u3270
  2204  0D25                     u3271:
  2205  0D25  2D2D               	goto	l2386
  2206  0D26                     u3270:
  2207  0D26                     l2382:
  2208  0D26  09A2               	comf	___awmod@dividend,f
  2209  0D27  09A3               	comf	___awmod@dividend+1,f
  2210  0D28  0AA2               	incf	___awmod@dividend,f
  2211  0D29  1903               	skipnz
  2212  0D2A  0AA3               	incf	___awmod@dividend+1,f
  2213  0D2B                     l2384:
  2214  0D2B  01A6               	clrf	___awmod@sign
  2215  0D2C  0AA6               	incf	___awmod@sign,f
  2216  0D2D                     l2386:
  2217  0D2D  1FA1               	btfss	___awmod@divisor+1,7
  2218  0D2E  2D30               	goto	u3281
  2219  0D2F  2D31               	goto	u3280
  2220  0D30                     u3281:
  2221  0D30  2D36               	goto	l2390
  2222  0D31                     u3280:
  2223  0D31                     l2388:
  2224  0D31  09A0               	comf	___awmod@divisor,f
  2225  0D32  09A1               	comf	___awmod@divisor+1,f
  2226  0D33  0AA0               	incf	___awmod@divisor,f
  2227  0D34  1903               	skipnz
  2228  0D35  0AA1               	incf	___awmod@divisor+1,f
  2229  0D36                     l2390:
  2230  0D36  0820               	movf	___awmod@divisor,w
  2231  0D37  0421               	iorwf	___awmod@divisor+1,w
  2232  0D38  1903               	btfsc	3,2
  2233  0D39  2D3B               	goto	u3291
  2234  0D3A  2D3C               	goto	u3290
  2235  0D3B                     u3291:
  2236  0D3B  2D6B               	goto	l2408
  2237  0D3C                     u3290:
  2238  0D3C                     l2392:
  2239  0D3C  01A5               	clrf	___awmod@counter
  2240  0D3D  0AA5               	incf	___awmod@counter,f
  2241  0D3E  2D4A               	goto	l2398
  2242  0D3F                     l2394:
  2243  0D3F  3001               	movlw	1
  2244  0D40                     u3305:
  2245  0D40  1003               	clrc
  2246  0D41  0DA0               	rlf	___awmod@divisor,f
  2247  0D42  0DA1               	rlf	___awmod@divisor+1,f
  2248  0D43  3EFF               	addlw	-1
  2249  0D44  1D03               	skipz
  2250  0D45  2D40               	goto	u3305
  2251  0D46                     l2396:
  2252  0D46  3001               	movlw	1
  2253  0D47  00A4               	movwf	??___awmod
  2254  0D48  0824               	movf	??___awmod,w
  2255  0D49  07A5               	addwf	___awmod@counter,f
  2256  0D4A                     l2398:
  2257  0D4A  1FA1               	btfss	___awmod@divisor+1,7
  2258  0D4B  2D4D               	goto	u3311
  2259  0D4C  2D4E               	goto	u3310
  2260  0D4D                     u3311:
  2261  0D4D  2D3F               	goto	l2394
  2262  0D4E                     u3310:
  2263  0D4E                     l2400:
  2264  0D4E  0821               	movf	___awmod@divisor+1,w
  2265  0D4F  0223               	subwf	___awmod@dividend+1,w
  2266  0D50  1D03               	skipz
  2267  0D51  2D54               	goto	u3325
  2268  0D52  0820               	movf	___awmod@divisor,w
  2269  0D53  0222               	subwf	___awmod@dividend,w
  2270  0D54                     u3325:
  2271  0D54  1C03               	skipc
  2272  0D55  2D57               	goto	u3321
  2273  0D56  2D58               	goto	u3320
  2274  0D57                     u3321:
  2275  0D57  2D5E               	goto	l2404
  2276  0D58                     u3320:
  2277  0D58                     l2402:
  2278  0D58  0820               	movf	___awmod@divisor,w
  2279  0D59  02A2               	subwf	___awmod@dividend,f
  2280  0D5A  0821               	movf	___awmod@divisor+1,w
  2281  0D5B  1C03               	skipc
  2282  0D5C  03A3               	decf	___awmod@dividend+1,f
  2283  0D5D  02A3               	subwf	___awmod@dividend+1,f
  2284  0D5E                     l2404:
  2285  0D5E  3001               	movlw	1
  2286  0D5F                     u3335:
  2287  0D5F  1003               	clrc
  2288  0D60  0CA1               	rrf	___awmod@divisor+1,f
  2289  0D61  0CA0               	rrf	___awmod@divisor,f
  2290  0D62  3EFF               	addlw	-1
  2291  0D63  1D03               	skipz
  2292  0D64  2D5F               	goto	u3335
  2293  0D65                     l2406:
  2294  0D65  3001               	movlw	1
  2295  0D66  02A5               	subwf	___awmod@counter,f
  2296  0D67  1D03               	btfss	3,2
  2297  0D68  2D6A               	goto	u3341
  2298  0D69  2D6B               	goto	u3340
  2299  0D6A                     u3341:
  2300  0D6A  2D4E               	goto	l2400
  2301  0D6B                     u3340:
  2302  0D6B                     l2408:
  2303  0D6B  0826               	movf	___awmod@sign,w
  2304  0D6C  1903               	btfsc	3,2
  2305  0D6D  2D6F               	goto	u3351
  2306  0D6E  2D70               	goto	u3350
  2307  0D6F                     u3351:
  2308  0D6F  2D75               	goto	l2412
  2309  0D70                     u3350:
  2310  0D70                     l2410:
  2311  0D70  09A2               	comf	___awmod@dividend,f
  2312  0D71  09A3               	comf	___awmod@dividend+1,f
  2313  0D72  0AA2               	incf	___awmod@dividend,f
  2314  0D73  1903               	skipnz
  2315  0D74  0AA3               	incf	___awmod@dividend+1,f
  2316  0D75                     l2412:
  2317  0D75  0823               	movf	___awmod@dividend+1,w
  2318  0D76  00A1               	movwf	?___awmod+1
  2319  0D77  0822               	movf	___awmod@dividend,w
  2320  0D78  00A0               	movwf	?___awmod
  2321  0D79                     l462:
  2322  0D79  0008               	return
  2323  0D7A                     __end_of___awmod:
  2324                           
  2325                           	psect	text7
  2326  0DE0                     __ptext7:	
  2327 ;; *************** function ___awdiv *****************
  2328 ;; Defined at:
  2329 ;;		line 5 in file "C:\Program Files\Microchip\xc8\v2.32\pic\sources\c90\common\awdiv.c"
  2330 ;; Parameters:    Size  Location     Type
  2331 ;;  divisor         2    0[BANK0 ] int 
  2332 ;;  dividend        2    2[BANK0 ] int 
  2333 ;; Auto vars:     Size  Location     Type
  2334 ;;  quotient        2    7[BANK0 ] int 
  2335 ;;  sign            1    6[BANK0 ] unsigned char 
  2336 ;;  counter         1    5[BANK0 ] unsigned char 
  2337 ;; Return value:  Size  Location     Type
  2338 ;;                  2    0[BANK0 ] int 
  2339 ;; Registers used:
  2340 ;;		wreg, status,2, status,0
  2341 ;; Tracked objects:
  2342 ;;		On entry : 0/0
  2343 ;;		On exit  : 0/0
  2344 ;;		Unchanged: 0/0
  2345 ;; Data sizes:     COMMON   BANK0   BANK1   BANK3   BANK2
  2346 ;;      Params:         0       4       0       0       0
  2347 ;;      Locals:         0       4       0       0       0
  2348 ;;      Temps:          0       1       0       0       0
  2349 ;;      Totals:         0       9       0       0       0
  2350 ;;Total ram usage:        9 bytes
  2351 ;; Hardware stack levels used: 1
  2352 ;; Hardware stack levels required when called: 2
  2353 ;; This function calls:
  2354 ;;		Nothing
  2355 ;; This function is called by:
  2356 ;;		_LCD_num
  2357 ;; This function uses a non-reentrant model
  2358 ;;
  2359                           
  2360                           
  2361                           ;psect for function ___awdiv
  2362  0DE0                     ___awdiv:
  2363  0DE0                     l2334:	
  2364                           ;incstack = 0
  2365                           ; Regs used in ___awdiv: [wreg+status,2+status,0]
  2366                           
  2367  0DE0  1283               	bcf	3,5	;RP0=0, select bank0
  2368  0DE1  1303               	bcf	3,6	;RP1=0, select bank0
  2369  0DE2  01A6               	clrf	___awdiv@sign
  2370  0DE3                     l2336:
  2371  0DE3  1FA1               	btfss	___awdiv@divisor+1,7
  2372  0DE4  2DE6               	goto	u3171
  2373  0DE5  2DE7               	goto	u3170
  2374  0DE6                     u3171:
  2375  0DE6  2DEE               	goto	l2342
  2376  0DE7                     u3170:
  2377  0DE7                     l2338:
  2378  0DE7  09A0               	comf	___awdiv@divisor,f
  2379  0DE8  09A1               	comf	___awdiv@divisor+1,f
  2380  0DE9  0AA0               	incf	___awdiv@divisor,f
  2381  0DEA  1903               	skipnz
  2382  0DEB  0AA1               	incf	___awdiv@divisor+1,f
  2383  0DEC                     l2340:
  2384  0DEC  01A6               	clrf	___awdiv@sign
  2385  0DED  0AA6               	incf	___awdiv@sign,f
  2386  0DEE                     l2342:
  2387  0DEE  1FA3               	btfss	___awdiv@dividend+1,7
  2388  0DEF  2DF1               	goto	u3181
  2389  0DF0  2DF2               	goto	u3180
  2390  0DF1                     u3181:
  2391  0DF1  2DFB               	goto	l2348
  2392  0DF2                     u3180:
  2393  0DF2                     l2344:
  2394  0DF2  09A2               	comf	___awdiv@dividend,f
  2395  0DF3  09A3               	comf	___awdiv@dividend+1,f
  2396  0DF4  0AA2               	incf	___awdiv@dividend,f
  2397  0DF5  1903               	skipnz
  2398  0DF6  0AA3               	incf	___awdiv@dividend+1,f
  2399  0DF7                     l2346:
  2400  0DF7  3001               	movlw	1
  2401  0DF8  00A4               	movwf	??___awdiv
  2402  0DF9  0824               	movf	??___awdiv,w
  2403  0DFA  06A6               	xorwf	___awdiv@sign,f
  2404  0DFB                     l2348:
  2405  0DFB  01A7               	clrf	___awdiv@quotient
  2406  0DFC  01A8               	clrf	___awdiv@quotient+1
  2407  0DFD                     l2350:
  2408  0DFD  0820               	movf	___awdiv@divisor,w
  2409  0DFE  0421               	iorwf	___awdiv@divisor+1,w
  2410  0DFF  1903               	btfsc	3,2
  2411  0E00  2E02               	goto	u3191
  2412  0E01  2E03               	goto	u3190
  2413  0E02                     u3191:
  2414  0E02  2E3A               	goto	l2370
  2415  0E03                     u3190:
  2416  0E03                     l2352:
  2417  0E03  01A5               	clrf	___awdiv@counter
  2418  0E04  0AA5               	incf	___awdiv@counter,f
  2419  0E05  2E11               	goto	l2358
  2420  0E06                     l2354:
  2421  0E06  3001               	movlw	1
  2422  0E07                     u3205:
  2423  0E07  1003               	clrc
  2424  0E08  0DA0               	rlf	___awdiv@divisor,f
  2425  0E09  0DA1               	rlf	___awdiv@divisor+1,f
  2426  0E0A  3EFF               	addlw	-1
  2427  0E0B  1D03               	skipz
  2428  0E0C  2E07               	goto	u3205
  2429  0E0D                     l2356:
  2430  0E0D  3001               	movlw	1
  2431  0E0E  00A4               	movwf	??___awdiv
  2432  0E0F  0824               	movf	??___awdiv,w
  2433  0E10  07A5               	addwf	___awdiv@counter,f
  2434  0E11                     l2358:
  2435  0E11  1FA1               	btfss	___awdiv@divisor+1,7
  2436  0E12  2E14               	goto	u3211
  2437  0E13  2E15               	goto	u3210
  2438  0E14                     u3211:
  2439  0E14  2E06               	goto	l2354
  2440  0E15                     u3210:
  2441  0E15                     l2360:
  2442  0E15  3001               	movlw	1
  2443  0E16                     u3225:
  2444  0E16  1003               	clrc
  2445  0E17  0DA7               	rlf	___awdiv@quotient,f
  2446  0E18  0DA8               	rlf	___awdiv@quotient+1,f
  2447  0E19  3EFF               	addlw	-1
  2448  0E1A  1D03               	skipz
  2449  0E1B  2E16               	goto	u3225
  2450  0E1C  0821               	movf	___awdiv@divisor+1,w
  2451  0E1D  0223               	subwf	___awdiv@dividend+1,w
  2452  0E1E  1D03               	skipz
  2453  0E1F  2E22               	goto	u3235
  2454  0E20  0820               	movf	___awdiv@divisor,w
  2455  0E21  0222               	subwf	___awdiv@dividend,w
  2456  0E22                     u3235:
  2457  0E22  1C03               	skipc
  2458  0E23  2E25               	goto	u3231
  2459  0E24  2E26               	goto	u3230
  2460  0E25                     u3231:
  2461  0E25  2E2D               	goto	l2366
  2462  0E26                     u3230:
  2463  0E26                     l2362:
  2464  0E26  0820               	movf	___awdiv@divisor,w
  2465  0E27  02A2               	subwf	___awdiv@dividend,f
  2466  0E28  0821               	movf	___awdiv@divisor+1,w
  2467  0E29  1C03               	skipc
  2468  0E2A  03A3               	decf	___awdiv@dividend+1,f
  2469  0E2B  02A3               	subwf	___awdiv@dividend+1,f
  2470  0E2C                     l2364:
  2471  0E2C  1427               	bsf	___awdiv@quotient,0
  2472  0E2D                     l2366:
  2473  0E2D  3001               	movlw	1
  2474  0E2E                     u3245:
  2475  0E2E  1003               	clrc
  2476  0E2F  0CA1               	rrf	___awdiv@divisor+1,f
  2477  0E30  0CA0               	rrf	___awdiv@divisor,f
  2478  0E31  3EFF               	addlw	-1
  2479  0E32  1D03               	skipz
  2480  0E33  2E2E               	goto	u3245
  2481  0E34                     l2368:
  2482  0E34  3001               	movlw	1
  2483  0E35  02A5               	subwf	___awdiv@counter,f
  2484  0E36  1D03               	btfss	3,2
  2485  0E37  2E39               	goto	u3251
  2486  0E38  2E3A               	goto	u3250
  2487  0E39                     u3251:
  2488  0E39  2E15               	goto	l2360
  2489  0E3A                     u3250:
  2490  0E3A                     l2370:
  2491  0E3A  0826               	movf	___awdiv@sign,w
  2492  0E3B  1903               	btfsc	3,2
  2493  0E3C  2E3E               	goto	u3261
  2494  0E3D  2E3F               	goto	u3260
  2495  0E3E                     u3261:
  2496  0E3E  2E44               	goto	l2374
  2497  0E3F                     u3260:
  2498  0E3F                     l2372:
  2499  0E3F  09A7               	comf	___awdiv@quotient,f
  2500  0E40  09A8               	comf	___awdiv@quotient+1,f
  2501  0E41  0AA7               	incf	___awdiv@quotient,f
  2502  0E42  1903               	skipnz
  2503  0E43  0AA8               	incf	___awdiv@quotient+1,f
  2504  0E44                     l2374:
  2505  0E44  0828               	movf	___awdiv@quotient+1,w
  2506  0E45  00A1               	movwf	?___awdiv+1
  2507  0E46  0827               	movf	___awdiv@quotient,w
  2508  0E47  00A0               	movwf	?___awdiv
  2509  0E48                     l449:
  2510  0E48  0008               	return
  2511  0E49                     __end_of___awdiv:
  2512                           
  2513                           	psect	text8
  2514  0C32                     __ptext8:	
  2515 ;; *************** function _LCD_init *****************
  2516 ;; Defined at:
  2517 ;;		line 153 in file "dispLCD4vias.c"
  2518 ;; Parameters:    Size  Location     Type
  2519 ;;		None
  2520 ;; Auto vars:     Size  Location     Type
  2521 ;;		None
  2522 ;; Return value:  Size  Location     Type
  2523 ;;                  1    wreg      void 
  2524 ;; Registers used:
  2525 ;;		wreg, status,2, status,0, pclath, cstack
  2526 ;; Tracked objects:
  2527 ;;		On entry : 0/0
  2528 ;;		On exit  : 0/0
  2529 ;;		Unchanged: 0/0
  2530 ;; Data sizes:     COMMON   BANK0   BANK1   BANK3   BANK2
  2531 ;;      Params:         0       0       0       0       0
  2532 ;;      Locals:         0       0       0       0       0
  2533 ;;      Temps:          0       0       0       0       0
  2534 ;;      Totals:         0       0       0       0       0
  2535 ;;Total ram usage:        0 bytes
  2536 ;; Hardware stack levels used: 1
  2537 ;; Hardware stack levels required when called: 3
  2538 ;; This function calls:
  2539 ;;		_dispLCD_instReg
  2540 ;; This function is called by:
  2541 ;;		_main
  2542 ;; This function uses a non-reentrant model
  2543 ;;
  2544                           
  2545                           
  2546                           ;psect for function _LCD_init
  2547  0C32                     _LCD_init:
  2548  0C32                     l2596:	
  2549                           ;incstack = 0
  2550                           ; Regs used in _LCD_init: [wreg+status,2+status,0+pclath+cstack]
  2551                           
  2552                           
  2553                           ;dispLCD4vias.c: 155:     TRISDbits.TRISD0 = 0;
  2554  0C32  1683               	bsf	3,5	;RP0=1, select bank1
  2555  0C33  1303               	bcf	3,6	;RP1=0, select bank1
  2556  0C34  1008               	bcf	8,0	;volatile
  2557                           
  2558                           ;dispLCD4vias.c: 156:     TRISDbits.TRISD1 = 0;
  2559  0C35  1088               	bcf	8,1	;volatile
  2560                           
  2561                           ;dispLCD4vias.c: 157:     TRISDbits.TRISD2 = 0;
  2562  0C36  1108               	bcf	8,2	;volatile
  2563                           
  2564                           ;dispLCD4vias.c: 158:     TRISDbits.TRISD3 = 0;
  2565  0C37  1188               	bcf	8,3	;volatile
  2566                           
  2567                           ;dispLCD4vias.c: 160:     TRISDbits.TRISD4 = 0;
  2568  0C38  1208               	bcf	8,4	;volatile
  2569                           
  2570                           ;dispLCD4vias.c: 161:     TRISDbits.TRISD5 = 0;
  2571  0C39  1288               	bcf	8,5	;volatile
  2572                           
  2573                           ;dispLCD4vias.c: 162:     TRISDbits.TRISD6 = 1;
  2574  0C3A  1708               	bsf	8,6	;volatile
  2575                           
  2576                           ;dispLCD4vias.c: 163:     TRISDbits.TRISD7 = 1;
  2577  0C3B  1788               	bsf	8,7	;volatile
  2578  0C3C                     l2598:
  2579                           
  2580                           ;dispLCD4vias.c: 165:     ANSELH = 0;
  2581  0C3C  1683               	bsf	3,5	;RP0=1, select bank3
  2582  0C3D  1703               	bsf	3,6	;RP1=1, select bank3
  2583  0C3E  0189               	clrf	9	;volatile
  2584                           
  2585                           ;dispLCD4vias.c: 166:     TRISB = 0;
  2586  0C3F  1683               	bsf	3,5	;RP0=1, select bank1
  2587  0C40  1303               	bcf	3,6	;RP1=0, select bank1
  2588  0C41  0186               	clrf	6	;volatile
  2589                           
  2590                           ;dispLCD4vias.c: 167:     PORTB = 0;
  2591  0C42  1283               	bcf	3,5	;RP0=0, select bank0
  2592  0C43  1303               	bcf	3,6	;RP1=0, select bank0
  2593  0C44  0186               	clrf	6	;volatile
  2594  0C45                     l2600:
  2595                           
  2596                           ;dispLCD4vias.c: 169:     LCDbits.EN = 1;
  2597  0C45  1688               	bsf	8,5	;volatile
  2598  0C46                     l2602:
  2599                           
  2600                           ;dispLCD4vias.c: 170:     dispLCD_instReg( 0x20|0x00|0x08);
  2601  0C46  3028               	movlw	40
  2602  0C47  120A  158A  26C5  120A  158A  	fcall	_dispLCD_instReg
  2603  0C4C                     l2604:
  2604                           
  2605                           ;dispLCD4vias.c: 171:     dispLCD_instReg( 0x08|0x04|0x00|0x00 );
  2606  0C4C  300C               	movlw	12
  2607  0C4D  120A  158A  26C5  120A  158A  	fcall	_dispLCD_instReg
  2608  0C52                     l2606:
  2609                           
  2610                           ;dispLCD4vias.c: 172:     dispLCD_instReg( 0x01 );
  2611  0C52  3001               	movlw	1
  2612  0C53  120A  158A  26C5  120A  158A  	fcall	_dispLCD_instReg
  2613  0C58                     l2608:
  2614                           
  2615                           ;dispLCD4vias.c: 173:     dispLCD_instReg( 0x02 );
  2616  0C58  3002               	movlw	2
  2617  0C59  120A  158A  26C5  120A  158A  	fcall	_dispLCD_instReg
  2618  0C5E                     l96:
  2619  0C5E  0008               	return
  2620  0C5F                     __end_of_LCD_init:
  2621                           
  2622                           	psect	text9
  2623  0C90                     __ptext9:	
  2624 ;; *************** function _LCD_Texto *****************
  2625 ;; Defined at:
  2626 ;;		line 193 in file "dispLCD4vias.c"
  2627 ;; Parameters:    Size  Location     Type
  2628 ;;  lin             1    6[BANK0 ] unsigned char 
  2629 ;;  col             1    7[BANK0 ] unsigned char 
  2630 ;;  str             1    8[BANK0 ] PTR const unsigned char 
  2631 ;;		 -> STR_1(17), 
  2632 ;; Auto vars:     Size  Location     Type
  2633 ;;  pos             1   10[BANK0 ] unsigned char 
  2634 ;; Return value:  Size  Location     Type
  2635 ;;                  1    wreg      void 
  2636 ;; Registers used:
  2637 ;;		wreg, fsr0l, fsr0h, status,2, status,0, pclath, cstack
  2638 ;; Tracked objects:
  2639 ;;		On entry : 0/0
  2640 ;;		On exit  : 0/0
  2641 ;;		Unchanged: 0/0
  2642 ;; Data sizes:     COMMON   BANK0   BANK1   BANK3   BANK2
  2643 ;;      Params:         0       3       0       0       0
  2644 ;;      Locals:         0       1       0       0       0
  2645 ;;      Temps:          0       1       0       0       0
  2646 ;;      Totals:         0       5       0       0       0
  2647 ;;Total ram usage:        5 bytes
  2648 ;; Hardware stack levels used: 1
  2649 ;; Hardware stack levels required when called: 4
  2650 ;; This function calls:
  2651 ;;		_dispLCD_dataReg
  2652 ;;		_dispLCD_lincol
  2653 ;; This function is called by:
  2654 ;;		_main
  2655 ;; This function uses a non-reentrant model
  2656 ;;
  2657                           
  2658                           
  2659                           ;psect for function _LCD_Texto
  2660  0C90                     _LCD_Texto:
  2661  0C90                     l2610:	
  2662                           ;incstack = 0
  2663                           ; Regs used in _LCD_Texto: [wreg-fsr0h+status,2+status,0+pclath+cstack]
  2664                           
  2665                           
  2666                           ;dispLCD4vias.c: 193: void LCD_Texto( unsigned char lin, unsigned char col, const char *
      +                          str );dispLCD4vias.c: 194: {;dispLCD4vias.c: 195:     char pos = col;
  2667  0C90  1283               	bcf	3,5	;RP0=0, select bank0
  2668  0C91  1303               	bcf	3,6	;RP1=0, select bank0
  2669  0C92  0827               	movf	LCD_Texto@col,w
  2670  0C93  00A9               	movwf	??_LCD_Texto
  2671  0C94  0829               	movf	??_LCD_Texto,w
  2672  0C95  00AA               	movwf	LCD_Texto@pos
  2673  0C96                     l2612:
  2674                           
  2675                           ;dispLCD4vias.c: 196:     dispLCD_lincol( lin, col );
  2676  0C96  0827               	movf	LCD_Texto@col,w
  2677  0C97  00A9               	movwf	??_LCD_Texto
  2678  0C98  0829               	movf	??_LCD_Texto,w
  2679  0C99  00A3               	movwf	dispLCD_lincol@col
  2680  0C9A  0826               	movf	LCD_Texto@lin,w
  2681  0C9B  120A  158A  2398  120A  158A  	fcall	_dispLCD_lincol
  2682                           
  2683                           ;dispLCD4vias.c: 198:     while( *str )
  2684  0CA0  2CB7               	goto	l2620
  2685  0CA1                     l2614:
  2686                           
  2687                           ;dispLCD4vias.c: 199:     {;dispLCD4vias.c: 200:         dispLCD_dataReg( *str );
  2688  0CA1  0828               	movf	LCD_Texto@str,w
  2689  0CA2  0084               	movwf	4
  2690  0CA3  120A  158A  2000  120A  158A  	fcall	stringdir
  2691  0CA8  120A  158A  245F  120A  158A  	fcall	_dispLCD_dataReg
  2692  0CAD                     l2616:
  2693                           
  2694                           ;dispLCD4vias.c: 201:         ++str;
  2695  0CAD  3001               	movlw	1
  2696  0CAE  1283               	bcf	3,5	;RP0=0, select bank0
  2697  0CAF  1303               	bcf	3,6	;RP1=0, select bank0
  2698  0CB0  00A9               	movwf	??_LCD_Texto
  2699  0CB1  0829               	movf	??_LCD_Texto,w
  2700  0CB2  07A8               	addwf	LCD_Texto@str,f
  2701  0CB3                     l2618:
  2702                           
  2703                           ;dispLCD4vias.c: 202:         ++pos;
  2704  0CB3  3001               	movlw	1
  2705  0CB4  00A9               	movwf	??_LCD_Texto
  2706  0CB5  0829               	movf	??_LCD_Texto,w
  2707  0CB6  07AA               	addwf	LCD_Texto@pos,f
  2708  0CB7                     l2620:
  2709                           
  2710                           ;dispLCD4vias.c: 198:     while( *str )
  2711  0CB7  1283               	bcf	3,5	;RP0=0, select bank0
  2712  0CB8  1303               	bcf	3,6	;RP1=0, select bank0
  2713  0CB9  0828               	movf	LCD_Texto@str,w
  2714  0CBA  0084               	movwf	4
  2715  0CBB  120A  158A  2000  120A  158A  	fcall	stringdir
  2716  0CC0  3A00               	xorlw	0
  2717  0CC1  1D03               	skipz
  2718  0CC2  2CC4               	goto	u3731
  2719  0CC3  2CC5               	goto	u3730
  2720  0CC4                     u3731:
  2721  0CC4  2CA1               	goto	l2614
  2722  0CC5                     u3730:
  2723  0CC5                     l109:
  2724  0CC5  0008               	return
  2725  0CC6                     __end_of_LCD_Texto:
  2726                           
  2727                           	psect	text10
  2728  0B98                     __ptext10:	
  2729 ;; *************** function _dispLCD_lincol *****************
  2730 ;; Defined at:
  2731 ;;		line 147 in file "dispLCD4vias.c"
  2732 ;; Parameters:    Size  Location     Type
  2733 ;;  lin             1    wreg     unsigned char 
  2734 ;;  col             1    3[BANK0 ] unsigned char 
  2735 ;; Auto vars:     Size  Location     Type
  2736 ;;  lin             1    5[BANK0 ] unsigned char 
  2737 ;; Return value:  Size  Location     Type
  2738 ;;                  1    wreg      void 
  2739 ;; Registers used:
  2740 ;;		wreg, status,2, status,0, pclath, cstack
  2741 ;; Tracked objects:
  2742 ;;		On entry : 0/0
  2743 ;;		On exit  : 0/0
  2744 ;;		Unchanged: 0/0
  2745 ;; Data sizes:     COMMON   BANK0   BANK1   BANK3   BANK2
  2746 ;;      Params:         0       1       0       0       0
  2747 ;;      Locals:         0       1       0       0       0
  2748 ;;      Temps:          0       1       0       0       0
  2749 ;;      Totals:         0       3       0       0       0
  2750 ;;Total ram usage:        3 bytes
  2751 ;; Hardware stack levels used: 1
  2752 ;; Hardware stack levels required when called: 3
  2753 ;; This function calls:
  2754 ;;		_dispLCD_instReg
  2755 ;; This function is called by:
  2756 ;;		_LCD_Texto
  2757 ;;		_LCD_num
  2758 ;;		_LCD_str
  2759 ;; This function uses a non-reentrant model
  2760 ;;
  2761                           
  2762                           
  2763                           ;psect for function _dispLCD_lincol
  2764  0B98                     _dispLCD_lincol:
  2765                           
  2766                           ;incstack = 0
  2767                           ; Regs used in _dispLCD_lincol: [wreg+status,2+status,0+pclath+cstack]
  2768                           ;dispLCD_lincol@lin stored from wreg
  2769  0B98  1283               	bcf	3,5	;RP0=0, select bank0
  2770  0B99  1303               	bcf	3,6	;RP1=0, select bank0
  2771  0B9A  00A5               	movwf	dispLCD_lincol@lin
  2772  0B9B                     l2332:
  2773                           
  2774                           ;dispLCD4vias.c: 147: void dispLCD_lincol( unsigned char lin, unsigned char col);dispLCD
      +                          4vias.c: 148: {;dispLCD4vias.c: 149:     dispLCD_instReg( (0x80+((0x40 * lin) + (col + 0
      +                          x00) & 0x7F)) );
  2775  0B9B  0825               	movf	dispLCD_lincol@lin,w
  2776  0B9C  00A4               	movwf	??_dispLCD_lincol
  2777  0B9D  3006               	movlw	6
  2778  0B9E                     u3165:
  2779  0B9E  1003               	clrc
  2780  0B9F  0DA4               	rlf	??_dispLCD_lincol,f
  2781  0BA0  3EFF               	addlw	-1
  2782  0BA1  1D03               	skipz
  2783  0BA2  2B9E               	goto	u3165
  2784  0BA3  0823               	movf	dispLCD_lincol@col,w
  2785  0BA4  0724               	addwf	??_dispLCD_lincol,w
  2786  0BA5  397F               	andlw	127
  2787  0BA6  3E80               	addlw	128
  2788  0BA7  120A  158A  26C5  120A  158A  	fcall	_dispLCD_instReg
  2789  0BAC                     l93:
  2790  0BAC  0008               	return
  2791  0BAD                     __end_of_dispLCD_lincol:
  2792                           
  2793                           	psect	text11
  2794  0EC5                     __ptext11:	
  2795 ;; *************** function _dispLCD_instReg *****************
  2796 ;; Defined at:
  2797 ;;		line 96 in file "dispLCD4vias.c"
  2798 ;; Parameters:    Size  Location     Type
  2799 ;;  i               1    wreg     unsigned char 
  2800 ;; Auto vars:     Size  Location     Type
  2801 ;;  i               1    2[BANK0 ] unsigned char 
  2802 ;; Return value:  Size  Location     Type
  2803 ;;                  1    wreg      void 
  2804 ;; Registers used:
  2805 ;;		wreg, status,2, status,0
  2806 ;; Tracked objects:
  2807 ;;		On entry : 0/0
  2808 ;;		On exit  : 0/0
  2809 ;;		Unchanged: 0/0
  2810 ;; Data sizes:     COMMON   BANK0   BANK1   BANK3   BANK2
  2811 ;;      Params:         0       0       0       0       0
  2812 ;;      Locals:         0       1       0       0       0
  2813 ;;      Temps:          0       2       0       0       0
  2814 ;;      Totals:         0       3       0       0       0
  2815 ;;Total ram usage:        3 bytes
  2816 ;; Hardware stack levels used: 1
  2817 ;; Hardware stack levels required when called: 2
  2818 ;; This function calls:
  2819 ;;		Nothing
  2820 ;; This function is called by:
  2821 ;;		_dispLCD_lincol
  2822 ;;		_LCD_init
  2823 ;;		_dispLCD_clr
  2824 ;; This function uses a non-reentrant model
  2825 ;;
  2826                           
  2827                           
  2828                           ;psect for function _dispLCD_instReg
  2829  0EC5                     _dispLCD_instReg:
  2830                           
  2831                           ;incstack = 0
  2832                           ; Regs used in _dispLCD_instReg: [wreg+status,2+status,0]
  2833                           ;dispLCD_instReg@i stored from wreg
  2834  0EC5  1283               	bcf	3,5	;RP0=0, select bank0
  2835  0EC6  1303               	bcf	3,6	;RP1=0, select bank0
  2836  0EC7  00A2               	movwf	dispLCD_instReg@i
  2837  0EC8                     l2254:
  2838                           
  2839                           ;dispLCD4vias.c: 96: void dispLCD_instReg( unsigned char i );dispLCD4vias.c: 97: {;dispL
      +                          CD4vias.c: 98:     LCDbits.RS = 0;
  2840  0EC8  1208               	bcf	8,4	;volatile
  2841  0EC9                     l2256:
  2842                           
  2843                           ;dispLCD4vias.c: 99:     LCDbits.BUS = (i>>4);
  2844  0EC9  0822               	movf	dispLCD_instReg@i,w
  2845  0ECA  00A0               	movwf	??_dispLCD_instReg
  2846  0ECB  3004               	movlw	4
  2847  0ECC                     u3055:
  2848  0ECC  1003               	clrc
  2849  0ECD  0CA0               	rrf	??_dispLCD_instReg,f
  2850  0ECE  3EFF               	addlw	-1
  2851  0ECF  1D03               	skipz
  2852  0ED0  2ECC               	goto	u3055
  2853  0ED1  0808               	movf	8,w	;volatile
  2854  0ED2  0620               	xorwf	??_dispLCD_instReg,w
  2855  0ED3  39F0               	andlw	-16
  2856  0ED4  0620               	xorwf	??_dispLCD_instReg,w
  2857  0ED5  0088               	movwf	8	;volatile
  2858  0ED6                     l2258:
  2859                           
  2860                           ;dispLCD4vias.c: 101:     LCDbits.EN = 0;
  2861  0ED6  1288               	bcf	8,5	;volatile
  2862                           
  2863                           ;dispLCD4vias.c: 102:     if( i == 0x01 || i == 0x02 )
  2864  0ED7  0322               	decf	dispLCD_instReg@i,w
  2865  0ED8  1903               	btfsc	3,2
  2866  0ED9  2EDB               	goto	u3061
  2867  0EDA  2EDC               	goto	u3060
  2868  0EDB                     u3061:
  2869  0EDB  2EE2               	goto	l2262
  2870  0EDC                     u3060:
  2871  0EDC                     l2260:
  2872  0EDC  3002               	movlw	2
  2873  0EDD  0622               	xorwf	dispLCD_instReg@i,w
  2874  0EDE  1D03               	btfss	3,2
  2875  0EDF  2EE1               	goto	u3071
  2876  0EE0  2EE2               	goto	u3070
  2877  0EE1                     u3071:
  2878  0EE1  2EED               	goto	l2264
  2879  0EE2                     u3070:
  2880  0EE2                     l2262:
  2881                           
  2882                           ;dispLCD4vias.c: 103:         _delay((unsigned long)((2)*(4000000/4000.0)));
  2883  0EE2  3003               	movlw	3
  2884  0EE3  1283               	bcf	3,5	;RP0=0, select bank0
  2885  0EE4  1303               	bcf	3,6	;RP1=0, select bank0
  2886  0EE5  00A1               	movwf	??_dispLCD_instReg+1
  2887  0EE6  3097               	movlw	151
  2888  0EE7  00A0               	movwf	??_dispLCD_instReg
  2889  0EE8                     u3857:
  2890  0EE8  0BA0               	decfsz	??_dispLCD_instReg,f
  2891  0EE9  2EE8               	goto	u3857
  2892  0EEA  0BA1               	decfsz	??_dispLCD_instReg+1,f
  2893  0EEB  2EE8               	goto	u3857
  2894  0EEC  2EF4               	goto	l2266
  2895  0EED                     l2264:
  2896                           
  2897                           ;dispLCD4vias.c: 105:         _delay((unsigned long)((40)*(4000000/4000000.0)));
  2898  0EED  300C               	movlw	12
  2899  0EEE  1283               	bcf	3,5	;RP0=0, select bank0
  2900  0EEF  1303               	bcf	3,6	;RP1=0, select bank0
  2901  0EF0  00A0               	movwf	??_dispLCD_instReg
  2902  0EF1                     u3867:
  2903  0EF1  0BA0               	decfsz	??_dispLCD_instReg,f
  2904  0EF2  2EF1               	goto	u3867
  2905  0EF3  0000               	nop
  2906  0EF4                     l2266:
  2907                           
  2908                           ;dispLCD4vias.c: 106:     LCDbits.EN = 1;
  2909  0EF4  1283               	bcf	3,5	;RP0=0, select bank0
  2910  0EF5  1303               	bcf	3,6	;RP1=0, select bank0
  2911  0EF6  1688               	bsf	8,5	;volatile
  2912  0EF7                     l2268:
  2913                           
  2914                           ;dispLCD4vias.c: 110:     if( (i & 0xF0) == (0x20 | 0x00) )
  2915  0EF7  30F0               	movlw	240
  2916  0EF8  0522               	andwf	dispLCD_instReg@i,w
  2917  0EF9  00A0               	movwf	??_dispLCD_instReg
  2918  0EFA  3020               	movlw	32
  2919  0EFB  0620               	xorwf	??_dispLCD_instReg,w
  2920  0EFC  1D03               	btfss	3,2
  2921  0EFD  2EFF               	goto	u3081
  2922  0EFE  2F00               	goto	u3080
  2923  0EFF                     u3081:
  2924  0EFF  2F19               	goto	l2280
  2925  0F00                     u3080:
  2926  0F00                     l2270:
  2927                           
  2928                           ;dispLCD4vias.c: 111:     {;dispLCD4vias.c: 112:         LCDbits.RS = 0;
  2929  0F00  1208               	bcf	8,4	;volatile
  2930  0F01                     l2272:
  2931                           
  2932                           ;dispLCD4vias.c: 113:         LCDbits.BUS = i>>4;
  2933  0F01  0822               	movf	dispLCD_instReg@i,w
  2934  0F02  00A0               	movwf	??_dispLCD_instReg
  2935  0F03  3004               	movlw	4
  2936  0F04                     u3095:
  2937  0F04  1003               	clrc
  2938  0F05  0CA0               	rrf	??_dispLCD_instReg,f
  2939  0F06  3EFF               	addlw	-1
  2940  0F07  1D03               	skipz
  2941  0F08  2F04               	goto	u3095
  2942  0F09  0808               	movf	8,w	;volatile
  2943  0F0A  0620               	xorwf	??_dispLCD_instReg,w
  2944  0F0B  39F0               	andlw	-16
  2945  0F0C  0620               	xorwf	??_dispLCD_instReg,w
  2946  0F0D  0088               	movwf	8	;volatile
  2947  0F0E                     l2274:
  2948                           
  2949                           ;dispLCD4vias.c: 114:         LCDbits.EN = 0;
  2950  0F0E  1288               	bcf	8,5	;volatile
  2951  0F0F                     l2276:
  2952                           
  2953                           ;dispLCD4vias.c: 115:         _delay((unsigned long)((40)*(4000000/4000000.0)));
  2954  0F0F  300C               	movlw	12
  2955  0F10  1283               	bcf	3,5	;RP0=0, select bank0
  2956  0F11  1303               	bcf	3,6	;RP1=0, select bank0
  2957  0F12  00A0               	movwf	??_dispLCD_instReg
  2958  0F13                     u3877:
  2959  0F13  0BA0               	decfsz	??_dispLCD_instReg,f
  2960  0F14  2F13               	goto	u3877
  2961  0F15  0000               	nop
  2962  0F16                     l2278:
  2963                           
  2964                           ;dispLCD4vias.c: 116:         LCDbits.EN = 1;
  2965  0F16  1283               	bcf	3,5	;RP0=0, select bank0
  2966  0F17  1303               	bcf	3,6	;RP1=0, select bank0
  2967  0F18  1688               	bsf	8,5	;volatile
  2968  0F19                     l2280:
  2969                           
  2970                           ;dispLCD4vias.c: 120:     LCDbits.RS = 0;
  2971  0F19  1208               	bcf	8,4	;volatile
  2972  0F1A                     l2282:
  2973                           
  2974                           ;dispLCD4vias.c: 121:     LCDbits.BUS = i & 0x0F;
  2975  0F1A  300F               	movlw	15
  2976  0F1B  0522               	andwf	dispLCD_instReg@i,w
  2977  0F1C  00A0               	movwf	??_dispLCD_instReg
  2978  0F1D  0808               	movf	8,w	;volatile
  2979  0F1E  0620               	xorwf	??_dispLCD_instReg,w
  2980  0F1F  39F0               	andlw	-16
  2981  0F20  0620               	xorwf	??_dispLCD_instReg,w
  2982  0F21  0088               	movwf	8	;volatile
  2983  0F22                     l2284:
  2984                           
  2985                           ;dispLCD4vias.c: 122:     LCDbits.EN = 0;
  2986  0F22  1288               	bcf	8,5	;volatile
  2987  0F23                     l2286:
  2988                           
  2989                           ;dispLCD4vias.c: 123:     if( i == 0x01 || i == 0x02 )
  2990  0F23  0322               	decf	dispLCD_instReg@i,w
  2991  0F24  1903               	btfsc	3,2
  2992  0F25  2F27               	goto	u3101
  2993  0F26  2F28               	goto	u3100
  2994  0F27                     u3101:
  2995  0F27  2F2E               	goto	l2290
  2996  0F28                     u3100:
  2997  0F28                     l2288:
  2998  0F28  3002               	movlw	2
  2999  0F29  0622               	xorwf	dispLCD_instReg@i,w
  3000  0F2A  1D03               	btfss	3,2
  3001  0F2B  2F2D               	goto	u3111
  3002  0F2C  2F2E               	goto	u3110
  3003  0F2D                     u3111:
  3004  0F2D  2F39               	goto	l2292
  3005  0F2E                     u3110:
  3006  0F2E                     l2290:
  3007                           
  3008                           ;dispLCD4vias.c: 124:         _delay((unsigned long)((2)*(4000000/4000.0)));
  3009  0F2E  3003               	movlw	3
  3010  0F2F  1283               	bcf	3,5	;RP0=0, select bank0
  3011  0F30  1303               	bcf	3,6	;RP1=0, select bank0
  3012  0F31  00A1               	movwf	??_dispLCD_instReg+1
  3013  0F32  3097               	movlw	151
  3014  0F33  00A0               	movwf	??_dispLCD_instReg
  3015  0F34                     u3887:
  3016  0F34  0BA0               	decfsz	??_dispLCD_instReg,f
  3017  0F35  2F34               	goto	u3887
  3018  0F36  0BA1               	decfsz	??_dispLCD_instReg+1,f
  3019  0F37  2F34               	goto	u3887
  3020  0F38  2F40               	goto	l2294
  3021  0F39                     l2292:
  3022                           
  3023                           ;dispLCD4vias.c: 126:         _delay((unsigned long)((40)*(4000000/4000000.0)));
  3024  0F39  300C               	movlw	12
  3025  0F3A  1283               	bcf	3,5	;RP0=0, select bank0
  3026  0F3B  1303               	bcf	3,6	;RP1=0, select bank0
  3027  0F3C  00A0               	movwf	??_dispLCD_instReg
  3028  0F3D                     u3897:
  3029  0F3D  0BA0               	decfsz	??_dispLCD_instReg,f
  3030  0F3E  2F3D               	goto	u3897
  3031  0F3F  0000               	nop
  3032  0F40                     l2294:
  3033                           
  3034                           ;dispLCD4vias.c: 127:     LCDbits.EN = 1;
  3035  0F40  1283               	bcf	3,5	;RP0=0, select bank0
  3036  0F41  1303               	bcf	3,6	;RP1=0, select bank0
  3037  0F42  1688               	bsf	8,5	;volatile
  3038  0F43                     l87:
  3039  0F43  0008               	return
  3040  0F44                     __end_of_dispLCD_instReg:
  3041                           
  3042                           	psect	text12
  3043  0C5F                     __ptext12:	
  3044 ;; *************** function _dispLCD_dataReg *****************
  3045 ;; Defined at:
  3046 ;;		line 131 in file "dispLCD4vias.c"
  3047 ;; Parameters:    Size  Location     Type
  3048 ;;  d               1    wreg     unsigned char 
  3049 ;; Auto vars:     Size  Location     Type
  3050 ;;  d               1    1[BANK0 ] unsigned char 
  3051 ;; Return value:  Size  Location     Type
  3052 ;;                  1    wreg      void 
  3053 ;; Registers used:
  3054 ;;		wreg, status,2, status,0
  3055 ;; Tracked objects:
  3056 ;;		On entry : 0/0
  3057 ;;		On exit  : 0/0
  3058 ;;		Unchanged: 0/0
  3059 ;; Data sizes:     COMMON   BANK0   BANK1   BANK3   BANK2
  3060 ;;      Params:         0       0       0       0       0
  3061 ;;      Locals:         0       1       0       0       0
  3062 ;;      Temps:          0       1       0       0       0
  3063 ;;      Totals:         0       2       0       0       0
  3064 ;;Total ram usage:        2 bytes
  3065 ;; Hardware stack levels used: 1
  3066 ;; Hardware stack levels required when called: 2
  3067 ;; This function calls:
  3068 ;;		Nothing
  3069 ;; This function is called by:
  3070 ;;		_LCD_Texto
  3071 ;;		_LCD_num
  3072 ;;		_LCD_str
  3073 ;; This function uses a non-reentrant model
  3074 ;;
  3075                           
  3076                           
  3077                           ;psect for function _dispLCD_dataReg
  3078  0C5F                     _dispLCD_dataReg:
  3079                           
  3080                           ;incstack = 0
  3081                           ; Regs used in _dispLCD_dataReg: [wreg+status,2+status,0]
  3082                           ;dispLCD_dataReg@d stored from wreg
  3083  0C5F  1283               	bcf	3,5	;RP0=0, select bank0
  3084  0C60  1303               	bcf	3,6	;RP1=0, select bank0
  3085  0C61  00A1               	movwf	dispLCD_dataReg@d
  3086  0C62                     l2314:
  3087                           
  3088                           ;dispLCD4vias.c: 131: void dispLCD_dataReg( unsigned char d );dispLCD4vias.c: 132: {;dis
      +                          pLCD4vias.c: 133:     LCDbits.RS = 1;
  3089  0C62  1608               	bsf	8,4	;volatile
  3090  0C63                     l2316:
  3091                           
  3092                           ;dispLCD4vias.c: 134:     LCDbits.BUS = d >> 4;
  3093  0C63  0821               	movf	dispLCD_dataReg@d,w
  3094  0C64  00A0               	movwf	??_dispLCD_dataReg
  3095  0C65  3004               	movlw	4
  3096  0C66                     u3155:
  3097  0C66  1003               	clrc
  3098  0C67  0CA0               	rrf	??_dispLCD_dataReg,f
  3099  0C68  3EFF               	addlw	-1
  3100  0C69  1D03               	skipz
  3101  0C6A  2C66               	goto	u3155
  3102  0C6B  0808               	movf	8,w	;volatile
  3103  0C6C  0620               	xorwf	??_dispLCD_dataReg,w
  3104  0C6D  39F0               	andlw	-16
  3105  0C6E  0620               	xorwf	??_dispLCD_dataReg,w
  3106  0C6F  0088               	movwf	8	;volatile
  3107  0C70                     l2318:
  3108                           
  3109                           ;dispLCD4vias.c: 135:     LCDbits.EN = 0;
  3110  0C70  1288               	bcf	8,5	;volatile
  3111  0C71                     l2320:
  3112                           
  3113                           ;dispLCD4vias.c: 136:     _delay((unsigned long)((40)*(4000000/4000000.0)));
  3114  0C71  300C               	movlw	12
  3115  0C72  1283               	bcf	3,5	;RP0=0, select bank0
  3116  0C73  1303               	bcf	3,6	;RP1=0, select bank0
  3117  0C74  00A0               	movwf	??_dispLCD_dataReg
  3118  0C75                     u3907:
  3119  0C75  0BA0               	decfsz	??_dispLCD_dataReg,f
  3120  0C76  2C75               	goto	u3907
  3121  0C77  0000               	nop
  3122  0C78                     l2322:
  3123                           
  3124                           ;dispLCD4vias.c: 137:     LCDbits.EN = 1;
  3125  0C78  1283               	bcf	3,5	;RP0=0, select bank0
  3126  0C79  1303               	bcf	3,6	;RP1=0, select bank0
  3127  0C7A  1688               	bsf	8,5	;volatile
  3128  0C7B                     l2324:
  3129                           
  3130                           ;dispLCD4vias.c: 139:     LCDbits.RS = 1;
  3131  0C7B  1608               	bsf	8,4	;volatile
  3132  0C7C                     l2326:
  3133                           
  3134                           ;dispLCD4vias.c: 140:     LCDbits.BUS = d & 0x0F;
  3135  0C7C  300F               	movlw	15
  3136  0C7D  0521               	andwf	dispLCD_dataReg@d,w
  3137  0C7E  00A0               	movwf	??_dispLCD_dataReg
  3138  0C7F  0808               	movf	8,w	;volatile
  3139  0C80  0620               	xorwf	??_dispLCD_dataReg,w
  3140  0C81  39F0               	andlw	-16
  3141  0C82  0620               	xorwf	??_dispLCD_dataReg,w
  3142  0C83  0088               	movwf	8	;volatile
  3143  0C84                     l2328:
  3144                           
  3145                           ;dispLCD4vias.c: 141:     LCDbits.EN = 0;
  3146  0C84  1288               	bcf	8,5	;volatile
  3147                           
  3148                           ;dispLCD4vias.c: 142:     _delay((unsigned long)((40)*(4000000/4000000.0)));
  3149  0C85  300C               	movlw	12
  3150  0C86  1283               	bcf	3,5	;RP0=0, select bank0
  3151  0C87  1303               	bcf	3,6	;RP1=0, select bank0
  3152  0C88  00A0               	movwf	??_dispLCD_dataReg
  3153  0C89                     u3917:
  3154  0C89  0BA0               	decfsz	??_dispLCD_dataReg,f
  3155  0C8A  2C89               	goto	u3917
  3156  0C8B  0000               	nop
  3157  0C8C                     l2330:
  3158                           
  3159                           ;dispLCD4vias.c: 143:     LCDbits.EN = 1;
  3160  0C8C  1283               	bcf	3,5	;RP0=0, select bank0
  3161  0C8D  1303               	bcf	3,6	;RP1=0, select bank0
  3162  0C8E  1688               	bsf	8,5	;volatile
  3163  0C8F                     l90:
  3164  0C8F  0008               	return
  3165  0C90                     __end_of_dispLCD_dataReg:
  3166                           
  3167                           	psect	text13
  3168  0CC6                     __ptext13:	
  3169 ;; *************** function _Fahrenheit_value *****************
  3170 ;; Defined at:
  3171 ;;		line 33 in file "conversion_sensor.c"
  3172 ;; Parameters:    Size  Location     Type
  3173 ;;		None
  3174 ;; Auto vars:     Size  Location     Type
  3175 ;;  Fahrenheit_v    2   73[BANK0 ] int 
  3176 ;; Return value:  Size  Location     Type
  3177 ;;                  2   71[BANK0 ] unsigned int 
  3178 ;; Registers used:
  3179 ;;		wreg, status,2, status,0, btemp+1, pclath, cstack
  3180 ;; Tracked objects:
  3181 ;;		On entry : 0/0
  3182 ;;		On exit  : 0/0
  3183 ;;		Unchanged: 0/0
  3184 ;; Data sizes:     COMMON   BANK0   BANK1   BANK3   BANK2
  3185 ;;      Params:         0       2       0       0       0
  3186 ;;      Locals:         0       2       0       0       0
  3187 ;;      Temps:          0       0       0       0       0
  3188 ;;      Totals:         0       4       0       0       0
  3189 ;;Total ram usage:        4 bytes
  3190 ;; Hardware stack levels used: 1
  3191 ;; Hardware stack levels required when called: 4
  3192 ;; This function calls:
  3193 ;;		___fladd
  3194 ;;		___flmul
  3195 ;;		___fltol
  3196 ;;		___xxtofl
  3197 ;; This function is called by:
  3198 ;;		_main
  3199 ;; This function uses a non-reentrant model
  3200 ;;
  3201                           
  3202                           
  3203                           ;psect for function _Fahrenheit_value
  3204  0CC6                     _Fahrenheit_value:
  3205  0CC6                     l2590:	
  3206                           ;incstack = 0
  3207                           ; Regs used in _Fahrenheit_value: [wreg+status,2+status,0+btemp+1+pclath+cstack]
  3208                           
  3209                           
  3210                           ;conversion_sensor.c: 35:     int Fahrenheit_value = (var_value * 1.8)+32 ;
  3211  0CC6  0872               	movf	_var_value,w
  3212  0CC7  1283               	bcf	3,5	;RP0=0, select bank0
  3213  0CC8  1303               	bcf	3,6	;RP1=0, select bank0
  3214  0CC9  00A0               	movwf	___xxtofl@val
  3215  0CCA  0873               	movf	_var_value+1,w
  3216  0CCB  00A1               	movwf	___xxtofl@val+1
  3217  0CCC  3000               	movlw	0
  3218  0CCD  1BA1               	btfsc	___xxtofl@val+1,7
  3219  0CCE  30FF               	movlw	255
  3220  0CCF  00A2               	movwf	___xxtofl@val+2
  3221  0CD0  00A3               	movwf	___xxtofl@val+3
  3222  0CD1  3001               	movlw	1
  3223  0CD2  120A  158A  2744  120A  158A  	fcall	___xxtofl
  3224  0CD7  1283               	bcf	3,5	;RP0=0, select bank0
  3225  0CD8  1303               	bcf	3,6	;RP1=0, select bank0
  3226  0CD9  0823               	movf	?___xxtofl+3,w
  3227  0CDA  00B5               	movwf	___flmul@a+3
  3228  0CDB  0822               	movf	?___xxtofl+2,w
  3229  0CDC  00B4               	movwf	___flmul@a+2
  3230  0CDD  0821               	movf	?___xxtofl+1,w
  3231  0CDE  00B3               	movwf	___flmul@a+1
  3232  0CDF  0820               	movf	?___xxtofl,w
  3233  0CE0  00B2               	movwf	___flmul@a
  3234  0CE1  303F               	movlw	63
  3235  0CE2  00B1               	movwf	___flmul@b+3
  3236  0CE3  30E6               	movlw	230
  3237  0CE4  00B0               	movwf	___flmul@b+2
  3238  0CE5  3066               	movlw	102
  3239  0CE6  00AF               	movwf	___flmul@b+1
  3240  0CE7  3066               	movlw	102
  3241  0CE8  00AE               	movwf	___flmul@b
  3242  0CE9  120A  118A  2045  120A  158A  	fcall	___flmul
  3243  0CEE  1283               	bcf	3,5	;RP0=0, select bank0
  3244  0CEF  1303               	bcf	3,6	;RP1=0, select bank0
  3245  0CF0  0831               	movf	?___flmul+3,w
  3246  0CF1  00CF               	movwf	___fladd@a+3
  3247  0CF2  0830               	movf	?___flmul+2,w
  3248  0CF3  00CE               	movwf	___fladd@a+2
  3249  0CF4  082F               	movf	?___flmul+1,w
  3250  0CF5  00CD               	movwf	___fladd@a+1
  3251  0CF6  082E               	movf	?___flmul,w
  3252  0CF7  00CC               	movwf	___fladd@a
  3253  0CF8  3042               	movlw	66
  3254  0CF9  00CB               	movwf	___fladd@b+3
  3255  0CFA  3000               	movlw	0
  3256  0CFB  00CA               	movwf	___fladd@b+2
  3257  0CFC  3000               	movlw	0
  3258  0CFD  00C9               	movwf	___fladd@b+1
  3259  0CFE  3000               	movlw	0
  3260  0CFF  00C8               	movwf	___fladd@b
  3261  0D00  120A  118A  23A6  120A  158A  	fcall	___fladd
  3262  0D05  1283               	bcf	3,5	;RP0=0, select bank0
  3263  0D06  1303               	bcf	3,6	;RP1=0, select bank0
  3264  0D07  084B               	movf	?___fladd+3,w
  3265  0D08  00DF               	movwf	___fltol@f1+3
  3266  0D09  084A               	movf	?___fladd+2,w
  3267  0D0A  00DE               	movwf	___fltol@f1+2
  3268  0D0B  0849               	movf	?___fladd+1,w
  3269  0D0C  00DD               	movwf	___fltol@f1+1
  3270  0D0D  0848               	movf	?___fladd,w
  3271  0D0E  00DC               	movwf	___fltol@f1
  3272  0D0F  120A  158A  2649  120A  158A  	fcall	___fltol
  3273  0D14  1283               	bcf	3,5	;RP0=0, select bank0
  3274  0D15  1303               	bcf	3,6	;RP1=0, select bank0
  3275  0D16  085D               	movf	?___fltol+1,w
  3276  0D17  00EA               	movwf	Fahrenheit_value@Fahrenheit_value+1
  3277  0D18  085C               	movf	?___fltol,w
  3278  0D19  00E9               	movwf	Fahrenheit_value@Fahrenheit_value
  3279  0D1A                     l2592:
  3280                           
  3281                           ;conversion_sensor.c: 37:     return(Fahrenheit_value);
  3282  0D1A  086A               	movf	Fahrenheit_value@Fahrenheit_value+1,w
  3283  0D1B  00E8               	movwf	?_Fahrenheit_value+1
  3284  0D1C  0869               	movf	Fahrenheit_value@Fahrenheit_value,w
  3285  0D1D  00E7               	movwf	?_Fahrenheit_value
  3286  0D1E                     l55:
  3287  0D1E  0008               	return
  3288  0D1F                     __end_of_Fahrenheit_value:
  3289                           
  3290                           	psect	text14
  3291  0F44                     __ptext14:	
  3292 ;; *************** function ___xxtofl *****************
  3293 ;; Defined at:
  3294 ;;		line 10 in file "C:\Program Files\Microchip\xc8\v2.32\pic\sources\c90\common\xxtofl.c"
  3295 ;; Parameters:    Size  Location     Type
  3296 ;;  sign            1    wreg     unsigned char 
  3297 ;;  val             4    0[BANK0 ] long 
  3298 ;; Auto vars:     Size  Location     Type
  3299 ;;  sign            1    8[BANK0 ] unsigned char 
  3300 ;;  arg             4   10[BANK0 ] unsigned long 
  3301 ;;  exp             1    9[BANK0 ] unsigned char 
  3302 ;; Return value:  Size  Location     Type
  3303 ;;                  4    0[BANK0 ] unsigned char 
  3304 ;; Registers used:
  3305 ;;		wreg, status,2, status,0
  3306 ;; Tracked objects:
  3307 ;;		On entry : 0/0
  3308 ;;		On exit  : 0/0
  3309 ;;		Unchanged: 0/0
  3310 ;; Data sizes:     COMMON   BANK0   BANK1   BANK3   BANK2
  3311 ;;      Params:         0       4       0       0       0
  3312 ;;      Locals:         0       6       0       0       0
  3313 ;;      Temps:          0       4       0       0       0
  3314 ;;      Totals:         0      14       0       0       0
  3315 ;;Total ram usage:       14 bytes
  3316 ;; Hardware stack levels used: 1
  3317 ;; Hardware stack levels required when called: 2
  3318 ;; This function calls:
  3319 ;;		Nothing
  3320 ;; This function is called by:
  3321 ;;		_celsius_value
  3322 ;;		_Fahrenheit_value
  3323 ;; This function uses a non-reentrant model
  3324 ;;
  3325                           
  3326                           
  3327                           ;psect for function ___xxtofl
  3328  0F44                     ___xxtofl:
  3329                           
  3330                           ;incstack = 0
  3331                           ; Regs used in ___xxtofl: [wreg+status,2+status,0]
  3332                           ;___xxtofl@sign stored from wreg
  3333  0F44  1283               	bcf	3,5	;RP0=0, select bank0
  3334  0F45  1303               	bcf	3,6	;RP1=0, select bank0
  3335  0F46  00A8               	movwf	___xxtofl@sign
  3336  0F47                     l2088:
  3337  0F47  0828               	movf	___xxtofl@sign,w
  3338  0F48  1903               	btfsc	3,2
  3339  0F49  2F4B               	goto	u2791
  3340  0F4A  2F4C               	goto	u2790
  3341  0F4B                     u2791:
  3342  0F4B  2F60               	goto	l2094
  3343  0F4C                     u2790:
  3344  0F4C                     l2090:
  3345  0F4C  1FA3               	btfss	___xxtofl@val+3,7
  3346  0F4D  2F4F               	goto	u2801
  3347  0F4E  2F50               	goto	u2800
  3348  0F4F                     u2801:
  3349  0F4F  2F60               	goto	l2094
  3350  0F50                     u2800:
  3351  0F50                     l2092:
  3352  0F50  0920               	comf	___xxtofl@val,w
  3353  0F51  00AA               	movwf	___xxtofl@arg
  3354  0F52  0921               	comf	___xxtofl@val+1,w
  3355  0F53  00AB               	movwf	___xxtofl@arg+1
  3356  0F54  0922               	comf	___xxtofl@val+2,w
  3357  0F55  00AC               	movwf	___xxtofl@arg+2
  3358  0F56  0923               	comf	___xxtofl@val+3,w
  3359  0F57  00AD               	movwf	___xxtofl@arg+3
  3360  0F58  0AAA               	incf	___xxtofl@arg,f
  3361  0F59  1903               	skipnz
  3362  0F5A  0AAB               	incf	___xxtofl@arg+1,f
  3363  0F5B  1903               	skipnz
  3364  0F5C  0AAC               	incf	___xxtofl@arg+2,f
  3365  0F5D  1903               	skipnz
  3366  0F5E  0AAD               	incf	___xxtofl@arg+3,f
  3367  0F5F  2F68               	goto	l729
  3368  0F60                     l2094:
  3369  0F60  0823               	movf	___xxtofl@val+3,w
  3370  0F61  00AD               	movwf	___xxtofl@arg+3
  3371  0F62  0822               	movf	___xxtofl@val+2,w
  3372  0F63  00AC               	movwf	___xxtofl@arg+2
  3373  0F64  0821               	movf	___xxtofl@val+1,w
  3374  0F65  00AB               	movwf	___xxtofl@arg+1
  3375  0F66  0820               	movf	___xxtofl@val,w
  3376  0F67  00AA               	movwf	___xxtofl@arg
  3377  0F68                     l729:
  3378  0F68  0823               	movf	___xxtofl@val+3,w
  3379  0F69  0422               	iorwf	___xxtofl@val+2,w
  3380  0F6A  0421               	iorwf	___xxtofl@val+1,w
  3381  0F6B  0420               	iorwf	___xxtofl@val,w
  3382  0F6C  1D03               	skipz
  3383  0F6D  2F6F               	goto	u2811
  3384  0F6E  2F70               	goto	u2810
  3385  0F6F                     u2811:
  3386  0F6F  2F79               	goto	l2100
  3387  0F70                     u2810:
  3388  0F70                     l2096:
  3389  0F70  3000               	movlw	0
  3390  0F71  00A3               	movwf	?___xxtofl+3
  3391  0F72  3000               	movlw	0
  3392  0F73  00A2               	movwf	?___xxtofl+2
  3393  0F74  3000               	movlw	0
  3394  0F75  00A1               	movwf	?___xxtofl+1
  3395  0F76  3000               	movlw	0
  3396  0F77  00A0               	movwf	?___xxtofl
  3397  0F78  2FFF               	goto	l731
  3398  0F79                     l2100:
  3399  0F79  3096               	movlw	150
  3400  0F7A  00A4               	movwf	??___xxtofl
  3401  0F7B  0824               	movf	??___xxtofl,w
  3402  0F7C  00A9               	movwf	___xxtofl@exp
  3403  0F7D  2F8B               	goto	l2104
  3404  0F7E                     l2102:
  3405  0F7E  3001               	movlw	1
  3406  0F7F  00A4               	movwf	??___xxtofl
  3407  0F80  0824               	movf	??___xxtofl,w
  3408  0F81  07A9               	addwf	___xxtofl@exp,f
  3409  0F82  3001               	movlw	1
  3410  0F83                     u2825:
  3411  0F83  1003               	clrc
  3412  0F84  0CAD               	rrf	___xxtofl@arg+3,f
  3413  0F85  0CAC               	rrf	___xxtofl@arg+2,f
  3414  0F86  0CAB               	rrf	___xxtofl@arg+1,f
  3415  0F87  0CAA               	rrf	___xxtofl@arg,f
  3416  0F88  3EFF               	addlw	-1
  3417  0F89  1D03               	skipz
  3418  0F8A  2F83               	goto	u2825
  3419  0F8B                     l2104:
  3420  0F8B  30FE               	movlw	254
  3421  0F8C  052D               	andwf	___xxtofl@arg+3,w
  3422  0F8D  1D03               	btfss	3,2
  3423  0F8E  2F90               	goto	u2831
  3424  0F8F  2F91               	goto	u2830
  3425  0F90                     u2831:
  3426  0F90  2F7E               	goto	l2102
  3427  0F91                     u2830:
  3428  0F91  2FAD               	goto	l735
  3429  0F92                     l2106:
  3430  0F92  3001               	movlw	1
  3431  0F93  00A4               	movwf	??___xxtofl
  3432  0F94  0824               	movf	??___xxtofl,w
  3433  0F95  07A9               	addwf	___xxtofl@exp,f
  3434  0F96                     l2108:
  3435  0F96  3001               	movlw	1
  3436  0F97  07AA               	addwf	___xxtofl@arg,f
  3437  0F98  3000               	movlw	0
  3438  0F99  1803               	skipnc
  3439  0F9A  3001               	movlw	1
  3440  0F9B  07AB               	addwf	___xxtofl@arg+1,f
  3441  0F9C  3000               	movlw	0
  3442  0F9D  1803               	skipnc
  3443  0F9E  3001               	movlw	1
  3444  0F9F  07AC               	addwf	___xxtofl@arg+2,f
  3445  0FA0  3000               	movlw	0
  3446  0FA1  1803               	skipnc
  3447  0FA2  3001               	movlw	1
  3448  0FA3  07AD               	addwf	___xxtofl@arg+3,f
  3449  0FA4                     l2110:
  3450  0FA4  3001               	movlw	1
  3451  0FA5                     u2845:
  3452  0FA5  1003               	clrc
  3453  0FA6  0CAD               	rrf	___xxtofl@arg+3,f
  3454  0FA7  0CAC               	rrf	___xxtofl@arg+2,f
  3455  0FA8  0CAB               	rrf	___xxtofl@arg+1,f
  3456  0FA9  0CAA               	rrf	___xxtofl@arg,f
  3457  0FAA  3EFF               	addlw	-1
  3458  0FAB  1D03               	skipz
  3459  0FAC  2FA5               	goto	u2845
  3460  0FAD                     l735:
  3461  0FAD  30FF               	movlw	255
  3462  0FAE  052D               	andwf	___xxtofl@arg+3,w
  3463  0FAF  1D03               	btfss	3,2
  3464  0FB0  2FB2               	goto	u2851
  3465  0FB1  2FB3               	goto	u2850
  3466  0FB2                     u2851:
  3467  0FB2  2F92               	goto	l2106
  3468  0FB3                     u2850:
  3469  0FB3  2FBF               	goto	l2114
  3470  0FB4                     l2112:
  3471  0FB4  3001               	movlw	1
  3472  0FB5  02A9               	subwf	___xxtofl@exp,f
  3473  0FB6  3001               	movlw	1
  3474  0FB7  00A4               	movwf	??___xxtofl
  3475  0FB8                     u2865:
  3476  0FB8  1003               	clrc
  3477  0FB9  0DAA               	rlf	___xxtofl@arg,f
  3478  0FBA  0DAB               	rlf	___xxtofl@arg+1,f
  3479  0FBB  0DAC               	rlf	___xxtofl@arg+2,f
  3480  0FBC  0DAD               	rlf	___xxtofl@arg+3,f
  3481  0FBD  0BA4               	decfsz	??___xxtofl,f
  3482  0FBE  2FB8               	goto	u2865
  3483  0FBF                     l2114:
  3484  0FBF  1BAC               	btfsc	___xxtofl@arg+2,7
  3485  0FC0  2FC2               	goto	u2871
  3486  0FC1  2FC3               	goto	u2870
  3487  0FC2                     u2871:
  3488  0FC2  2FC9               	goto	l742
  3489  0FC3                     u2870:
  3490  0FC3                     l2116:
  3491  0FC3  3002               	movlw	2
  3492  0FC4  0229               	subwf	___xxtofl@exp,w
  3493  0FC5  1803               	skipnc
  3494  0FC6  2FC8               	goto	u2881
  3495  0FC7  2FC9               	goto	u2880
  3496  0FC8                     u2881:
  3497  0FC8  2FB4               	goto	l2112
  3498  0FC9                     u2880:
  3499  0FC9                     l742:
  3500  0FC9  1829               	btfsc	___xxtofl@exp,0
  3501  0FCA  2FCC               	goto	u2891
  3502  0FCB  2FCD               	goto	u2890
  3503  0FCC                     u2891:
  3504  0FCC  2FD5               	goto	l743
  3505  0FCD                     u2890:
  3506  0FCD                     l2118:
  3507  0FCD  30FF               	movlw	255
  3508  0FCE  05AA               	andwf	___xxtofl@arg,f
  3509  0FCF  30FF               	movlw	255
  3510  0FD0  05AB               	andwf	___xxtofl@arg+1,f
  3511  0FD1  307F               	movlw	127
  3512  0FD2  05AC               	andwf	___xxtofl@arg+2,f
  3513  0FD3  30FF               	movlw	255
  3514  0FD4  05AD               	andwf	___xxtofl@arg+3,f
  3515  0FD5                     l743:
  3516  0FD5  1003               	clrc
  3517  0FD6  0CA9               	rrf	___xxtofl@exp,f
  3518  0FD7                     l2120:
  3519  0FD7  0829               	movf	___xxtofl@exp,w
  3520  0FD8  00A4               	movwf	??___xxtofl
  3521  0FD9  01A5               	clrf	??___xxtofl+1
  3522  0FDA  01A6               	clrf	??___xxtofl+2
  3523  0FDB  01A7               	clrf	??___xxtofl+3
  3524  0FDC  3018               	movlw	24
  3525  0FDD                     u2905:
  3526  0FDD  1003               	clrc
  3527  0FDE  0DA4               	rlf	??___xxtofl,f
  3528  0FDF  0DA5               	rlf	??___xxtofl+1,f
  3529  0FE0  0DA6               	rlf	??___xxtofl+2,f
  3530  0FE1  0DA7               	rlf	??___xxtofl+3,f
  3531  0FE2                     u2900:
  3532  0FE2  3EFF               	addlw	-1
  3533  0FE3  1D03               	skipz
  3534  0FE4  2FDD               	goto	u2905
  3535  0FE5  0824               	movf	??___xxtofl,w
  3536  0FE6  04AA               	iorwf	___xxtofl@arg,f
  3537  0FE7  0825               	movf	??___xxtofl+1,w
  3538  0FE8  04AB               	iorwf	___xxtofl@arg+1,f
  3539  0FE9  0826               	movf	??___xxtofl+2,w
  3540  0FEA  04AC               	iorwf	___xxtofl@arg+2,f
  3541  0FEB  0827               	movf	??___xxtofl+3,w
  3542  0FEC  04AD               	iorwf	___xxtofl@arg+3,f
  3543  0FED                     l2122:
  3544  0FED  0828               	movf	___xxtofl@sign,w
  3545  0FEE  1903               	btfsc	3,2
  3546  0FEF  2FF1               	goto	u2911
  3547  0FF0  2FF2               	goto	u2910
  3548  0FF1                     u2911:
  3549  0FF1  2FF7               	goto	l2128
  3550  0FF2                     u2910:
  3551  0FF2                     l2124:
  3552  0FF2  1FA3               	btfss	___xxtofl@val+3,7
  3553  0FF3  2FF5               	goto	u2921
  3554  0FF4  2FF6               	goto	u2920
  3555  0FF5                     u2921:
  3556  0FF5  2FF7               	goto	l2128
  3557  0FF6                     u2920:
  3558  0FF6                     l2126:
  3559  0FF6  17AD               	bsf	___xxtofl@arg+3,7
  3560  0FF7                     l2128:
  3561  0FF7  082D               	movf	___xxtofl@arg+3,w
  3562  0FF8  00A3               	movwf	?___xxtofl+3
  3563  0FF9  082C               	movf	___xxtofl@arg+2,w
  3564  0FFA  00A2               	movwf	?___xxtofl+2
  3565  0FFB  082B               	movf	___xxtofl@arg+1,w
  3566  0FFC  00A1               	movwf	?___xxtofl+1
  3567  0FFD  082A               	movf	___xxtofl@arg,w
  3568  0FFE  00A0               	movwf	?___xxtofl
  3569  0FFF                     l731:
  3570  0FFF  0008               	return
  3571  1000                     __end_of___xxtofl:
  3572                           
  3573                           	psect	text15
  3574  0E49                     __ptext15:	
  3575 ;; *************** function ___fltol *****************
  3576 ;; Defined at:
  3577 ;;		line 43 in file "C:\Program Files\Microchip\xc8\v2.32\pic\sources\c90\common\fltol.c"
  3578 ;; Parameters:    Size  Location     Type
  3579 ;;  f1              4   60[BANK0 ] unsigned char 
  3580 ;; Auto vars:     Size  Location     Type
  3581 ;;  exp1            1   70[BANK0 ] unsigned char 
  3582 ;;  sign1           1   69[BANK0 ] unsigned char 
  3583 ;; Return value:  Size  Location     Type
  3584 ;;                  4   60[BANK0 ] long 
  3585 ;; Registers used:
  3586 ;;		wreg, status,2, status,0
  3587 ;; Tracked objects:
  3588 ;;		On entry : 0/0
  3589 ;;		On exit  : 0/0
  3590 ;;		Unchanged: 0/0
  3591 ;; Data sizes:     COMMON   BANK0   BANK1   BANK3   BANK2
  3592 ;;      Params:         0       4       0       0       0
  3593 ;;      Locals:         0       2       0       0       0
  3594 ;;      Temps:          0       5       0       0       0
  3595 ;;      Totals:         0      11       0       0       0
  3596 ;;Total ram usage:       11 bytes
  3597 ;; Hardware stack levels used: 1
  3598 ;; Hardware stack levels required when called: 2
  3599 ;; This function calls:
  3600 ;;		Nothing
  3601 ;; This function is called by:
  3602 ;;		_celsius_value
  3603 ;;		_Fahrenheit_value
  3604 ;; This function uses a non-reentrant model
  3605 ;;
  3606                           
  3607                           
  3608                           ;psect for function ___fltol
  3609  0E49                     ___fltol:
  3610  0E49                     l1718:	
  3611                           ;incstack = 0
  3612                           ; Regs used in ___fltol: [wreg+status,2+status,0]
  3613                           
  3614  0E49  1003               	clrc
  3615  0E4A  1283               	bcf	3,5	;RP0=0, select bank0
  3616  0E4B  1303               	bcf	3,6	;RP1=0, select bank0
  3617  0E4C  0D5E               	rlf	___fltol@f1+2,w
  3618  0E4D  0D5F               	rlf	___fltol@f1+3,w
  3619  0E4E  00E0               	movwf	??___fltol
  3620  0E4F  0860               	movf	??___fltol,w
  3621  0E50  00E6               	movwf	___fltol@exp1
  3622  0E51  0866               	movf	___fltol@exp1,w
  3623  0E52  1D03               	btfss	3,2
  3624  0E53  2E55               	goto	u1861
  3625  0E54  2E56               	goto	u1860
  3626  0E55                     u1861:
  3627  0E55  2E5F               	goto	l1724
  3628  0E56                     u1860:
  3629  0E56                     l1720:
  3630  0E56  3000               	movlw	0
  3631  0E57  00DF               	movwf	?___fltol+3
  3632  0E58  3000               	movlw	0
  3633  0E59  00DE               	movwf	?___fltol+2
  3634  0E5A  3000               	movlw	0
  3635  0E5B  00DD               	movwf	?___fltol+1
  3636  0E5C  3000               	movlw	0
  3637  0E5D  00DC               	movwf	?___fltol
  3638  0E5E  2EC4               	goto	l482
  3639  0E5F                     l1724:
  3640  0E5F  085C               	movf	___fltol@f1,w
  3641  0E60  00E0               	movwf	??___fltol
  3642  0E61  085D               	movf	___fltol@f1+1,w
  3643  0E62  00E1               	movwf	??___fltol+1
  3644  0E63  085E               	movf	___fltol@f1+2,w
  3645  0E64  00E2               	movwf	??___fltol+2
  3646  0E65  085F               	movf	___fltol@f1+3,w
  3647  0E66  00E3               	movwf	??___fltol+3
  3648  0E67  301F               	movlw	31
  3649  0E68                     u1875:
  3650  0E68  1003               	clrc
  3651  0E69  0CE3               	rrf	??___fltol+3,f
  3652  0E6A  0CE2               	rrf	??___fltol+2,f
  3653  0E6B  0CE1               	rrf	??___fltol+1,f
  3654  0E6C  0CE0               	rrf	??___fltol,f
  3655  0E6D                     u1870:
  3656  0E6D  3EFF               	addlw	-1
  3657  0E6E  1D03               	skipz
  3658  0E6F  2E68               	goto	u1875
  3659  0E70  0860               	movf	??___fltol,w
  3660  0E71  00E4               	movwf	??___fltol+4
  3661  0E72  0864               	movf	??___fltol+4,w
  3662  0E73  00E5               	movwf	___fltol@sign1
  3663  0E74                     l1726:
  3664  0E74  17DE               	bsf	___fltol@f1+2,7
  3665  0E75                     l1728:
  3666  0E75  30FF               	movlw	255
  3667  0E76  05DC               	andwf	___fltol@f1,f
  3668  0E77  30FF               	movlw	255
  3669  0E78  05DD               	andwf	___fltol@f1+1,f
  3670  0E79  30FF               	movlw	255
  3671  0E7A  05DE               	andwf	___fltol@f1+2,f
  3672  0E7B  3000               	movlw	0
  3673  0E7C  05DF               	andwf	___fltol@f1+3,f
  3674  0E7D                     l1730:
  3675  0E7D  3096               	movlw	150
  3676  0E7E  02E6               	subwf	___fltol@exp1,f
  3677  0E7F                     l1732:
  3678  0E7F  1FE6               	btfss	___fltol@exp1,7
  3679  0E80  2E82               	goto	u1881
  3680  0E81  2E83               	goto	u1880
  3681  0E82                     u1881:
  3682  0E82  2E9D               	goto	l1742
  3683  0E83                     u1880:
  3684  0E83                     l1734:
  3685  0E83  0866               	movf	___fltol@exp1,w
  3686  0E84  3A80               	xorlw	128
  3687  0E85  3E97               	addlw	151
  3688  0E86  1803               	skipnc
  3689  0E87  2E89               	goto	u1891
  3690  0E88  2E8A               	goto	u1890
  3691  0E89                     u1891:
  3692  0E89  2E8B               	goto	l1740
  3693  0E8A                     u1890:
  3694  0E8A  2E56               	goto	l1720
  3695  0E8B                     l1740:
  3696  0E8B  3001               	movlw	1
  3697  0E8C                     u1905:
  3698  0E8C  1003               	clrc
  3699  0E8D  0CDF               	rrf	___fltol@f1+3,f
  3700  0E8E  0CDE               	rrf	___fltol@f1+2,f
  3701  0E8F  0CDD               	rrf	___fltol@f1+1,f
  3702  0E90  0CDC               	rrf	___fltol@f1,f
  3703  0E91  3EFF               	addlw	-1
  3704  0E92  1D03               	skipz
  3705  0E93  2E8C               	goto	u1905
  3706  0E94  3001               	movlw	1
  3707  0E95  00E0               	movwf	??___fltol
  3708  0E96  0860               	movf	??___fltol,w
  3709  0E97  07E6               	addwf	___fltol@exp1,f
  3710  0E98  1D03               	btfss	3,2
  3711  0E99  2E9B               	goto	u1911
  3712  0E9A  2E9C               	goto	u1910
  3713  0E9B                     u1911:
  3714  0E9B  2E8B               	goto	l1740
  3715  0E9C                     u1910:
  3716  0E9C  2EB4               	goto	l1750
  3717  0E9D                     l1742:
  3718  0E9D  3020               	movlw	32
  3719  0E9E  0266               	subwf	___fltol@exp1,w
  3720  0E9F  1C03               	skipc
  3721  0EA0  2EA2               	goto	u1921
  3722  0EA1  2EA3               	goto	u1920
  3723  0EA2                     u1921:
  3724  0EA2  2EAF               	goto	l489
  3725  0EA3                     u1920:
  3726  0EA3  2E56               	goto	l1720
  3727  0EA4                     l1748:
  3728  0EA4  3001               	movlw	1
  3729  0EA5  00E0               	movwf	??___fltol
  3730  0EA6                     u1935:
  3731  0EA6  1003               	clrc
  3732  0EA7  0DDC               	rlf	___fltol@f1,f
  3733  0EA8  0DDD               	rlf	___fltol@f1+1,f
  3734  0EA9  0DDE               	rlf	___fltol@f1+2,f
  3735  0EAA  0DDF               	rlf	___fltol@f1+3,f
  3736  0EAB  0BE0               	decfsz	??___fltol,f
  3737  0EAC  2EA6               	goto	u1935
  3738  0EAD  3001               	movlw	1
  3739  0EAE  02E6               	subwf	___fltol@exp1,f
  3740  0EAF                     l489:
  3741  0EAF  0866               	movf	___fltol@exp1,w
  3742  0EB0  1D03               	btfss	3,2
  3743  0EB1  2EB3               	goto	u1941
  3744  0EB2  2EB4               	goto	u1940
  3745  0EB3                     u1941:
  3746  0EB3  2EA4               	goto	l1748
  3747  0EB4                     u1940:
  3748  0EB4                     l1750:
  3749  0EB4  0865               	movf	___fltol@sign1,w
  3750  0EB5  1903               	btfsc	3,2
  3751  0EB6  2EB8               	goto	u1951
  3752  0EB7  2EB9               	goto	u1950
  3753  0EB8                     u1951:
  3754  0EB8  2EC4               	goto	l492
  3755  0EB9                     u1950:
  3756  0EB9                     l1752:
  3757  0EB9  09DC               	comf	___fltol@f1,f
  3758  0EBA  09DD               	comf	___fltol@f1+1,f
  3759  0EBB  09DE               	comf	___fltol@f1+2,f
  3760  0EBC  09DF               	comf	___fltol@f1+3,f
  3761  0EBD  0ADC               	incf	___fltol@f1,f
  3762  0EBE  1903               	skipnz
  3763  0EBF  0ADD               	incf	___fltol@f1+1,f
  3764  0EC0  1903               	skipnz
  3765  0EC1  0ADE               	incf	___fltol@f1+2,f
  3766  0EC2  1903               	skipnz
  3767  0EC3  0ADF               	incf	___fltol@f1+3,f
  3768  0EC4                     l492:
  3769  0EC4                     l482:
  3770  0EC4  0008               	return
  3771  0EC5                     __end_of___fltol:
  3772                           
  3773                           	psect	text16
  3774  0045                     __ptext16:	
  3775 ;; *************** function ___flmul *****************
  3776 ;; Defined at:
  3777 ;;		line 8 in file "C:\Program Files\Microchip\xc8\v2.32\pic\sources\c90\common\sprcmul.c"
  3778 ;; Parameters:    Size  Location     Type
  3779 ;;  b               4   14[BANK0 ] long 
  3780 ;;  a               4   18[BANK0 ] long 
  3781 ;; Auto vars:     Size  Location     Type
  3782 ;;  prod            4   34[BANK0 ] struct .
  3783 ;;  grs             4   29[BANK0 ] unsigned long 
  3784 ;;  temp            2   38[BANK0 ] struct .
  3785 ;;  bexp            1   33[BANK0 ] unsigned char 
  3786 ;;  aexp            1   28[BANK0 ] unsigned char 
  3787 ;;  sign            1   27[BANK0 ] unsigned char 
  3788 ;; Return value:  Size  Location     Type
  3789 ;;                  4   14[BANK0 ] unsigned char 
  3790 ;; Registers used:
  3791 ;;		wreg, status,2, status,0, btemp+1, pclath, cstack
  3792 ;; Tracked objects:
  3793 ;;		On entry : 0/0
  3794 ;;		On exit  : 0/0
  3795 ;;		Unchanged: 0/0
  3796 ;; Data sizes:     COMMON   BANK0   BANK1   BANK3   BANK2
  3797 ;;      Params:         0       8       0       0       0
  3798 ;;      Locals:         0      13       0       0       0
  3799 ;;      Temps:          0       5       0       0       0
  3800 ;;      Totals:         0      26       0       0       0
  3801 ;;Total ram usage:       26 bytes
  3802 ;; Hardware stack levels used: 1
  3803 ;; Hardware stack levels required when called: 3
  3804 ;; This function calls:
  3805 ;;		__Umul8_16
  3806 ;; This function is called by:
  3807 ;;		_celsius_value
  3808 ;;		_Fahrenheit_value
  3809 ;; This function uses a non-reentrant model
  3810 ;;
  3811                           
  3812                           
  3813                           ;psect for function ___flmul
  3814  0045                     ___flmul:
  3815  0045                     l2416:	
  3816                           ;incstack = 0
  3817                           ; Regs used in ___flmul: [wreg+status,2+status,0+btemp+1+pclath+cstack]
  3818                           
  3819  0045  1283               	bcf	3,5	;RP0=0, select bank0
  3820  0046  1303               	bcf	3,6	;RP1=0, select bank0
  3821  0047  0831               	movf	___flmul@b+3,w
  3822  0048  3980               	andlw	128
  3823  0049  00B6               	movwf	??___flmul
  3824  004A  0836               	movf	??___flmul,w
  3825  004B  00BB               	movwf	___flmul@sign
  3826  004C                     l2418:
  3827  004C  0831               	movf	___flmul@b+3,w
  3828  004D  00B6               	movwf	??___flmul
  3829  004E  0736               	addwf	??___flmul,w
  3830  004F  00B7               	movwf	??___flmul+1
  3831  0050  0837               	movf	??___flmul+1,w
  3832  0051  00C1               	movwf	___flmul@bexp
  3833  0052                     l2420:
  3834  0052  1FB0               	btfss	___flmul@b+2,7
  3835  0053  2855               	goto	u3361
  3836  0054  2856               	goto	u3360
  3837  0055                     u3361:
  3838  0055  2857               	goto	l2424
  3839  0056                     u3360:
  3840  0056                     l2422:
  3841  0056  1441               	bsf	___flmul@bexp,0
  3842  0057                     l2424:
  3843  0057  0841               	movf	___flmul@bexp,w
  3844  0058  1903               	btfsc	3,2
  3845  0059  285B               	goto	u3371
  3846  005A  285C               	goto	u3370
  3847  005B                     u3371:
  3848  005B  286B               	goto	l2432
  3849  005C                     u3370:
  3850  005C                     l2426:
  3851  005C  0A41               	incf	___flmul@bexp,w
  3852  005D  1D03               	btfss	3,2
  3853  005E  2860               	goto	u3381
  3854  005F  2861               	goto	u3380
  3855  0060                     u3381:
  3856  0060  2869               	goto	l2430
  3857  0061                     u3380:
  3858  0061                     l2428:
  3859  0061  3000               	movlw	0
  3860  0062  00B1               	movwf	___flmul@b+3
  3861  0063  3000               	movlw	0
  3862  0064  00B0               	movwf	___flmul@b+2
  3863  0065  3000               	movlw	0
  3864  0066  00AF               	movwf	___flmul@b+1
  3865  0067  3000               	movlw	0
  3866  0068  00AE               	movwf	___flmul@b
  3867  0069                     l2430:
  3868  0069  17B0               	bsf	___flmul@b+2,7
  3869  006A  2873               	goto	l2434
  3870  006B                     l2432:
  3871  006B  3000               	movlw	0
  3872  006C  00B1               	movwf	___flmul@b+3
  3873  006D  3000               	movlw	0
  3874  006E  00B0               	movwf	___flmul@b+2
  3875  006F  3000               	movlw	0
  3876  0070  00AF               	movwf	___flmul@b+1
  3877  0071  3000               	movlw	0
  3878  0072  00AE               	movwf	___flmul@b
  3879  0073                     l2434:
  3880  0073  0835               	movf	___flmul@a+3,w
  3881  0074  3980               	andlw	128
  3882  0075  00B6               	movwf	??___flmul
  3883  0076  0836               	movf	??___flmul,w
  3884  0077  06BB               	xorwf	___flmul@sign,f
  3885  0078                     l2436:
  3886  0078  0835               	movf	___flmul@a+3,w
  3887  0079  00B6               	movwf	??___flmul
  3888  007A  0736               	addwf	??___flmul,w
  3889  007B  00B7               	movwf	??___flmul+1
  3890  007C  0837               	movf	??___flmul+1,w
  3891  007D  00BC               	movwf	___flmul@aexp
  3892  007E                     l2438:
  3893  007E  1FB4               	btfss	___flmul@a+2,7
  3894  007F  2881               	goto	u3391
  3895  0080  2882               	goto	u3390
  3896  0081                     u3391:
  3897  0081  2883               	goto	l2442
  3898  0082                     u3390:
  3899  0082                     l2440:
  3900  0082  143C               	bsf	___flmul@aexp,0
  3901  0083                     l2442:
  3902  0083  083C               	movf	___flmul@aexp,w
  3903  0084  1903               	btfsc	3,2
  3904  0085  2887               	goto	u3401
  3905  0086  2888               	goto	u3400
  3906  0087                     u3401:
  3907  0087  2897               	goto	l2450
  3908  0088                     u3400:
  3909  0088                     l2444:
  3910  0088  0A3C               	incf	___flmul@aexp,w
  3911  0089  1D03               	btfss	3,2
  3912  008A  288C               	goto	u3411
  3913  008B  288D               	goto	u3410
  3914  008C                     u3411:
  3915  008C  2895               	goto	l2448
  3916  008D                     u3410:
  3917  008D                     l2446:
  3918  008D  3000               	movlw	0
  3919  008E  00B5               	movwf	___flmul@a+3
  3920  008F  3000               	movlw	0
  3921  0090  00B4               	movwf	___flmul@a+2
  3922  0091  3000               	movlw	0
  3923  0092  00B3               	movwf	___flmul@a+1
  3924  0093  3000               	movlw	0
  3925  0094  00B2               	movwf	___flmul@a
  3926  0095                     l2448:
  3927  0095  17B4               	bsf	___flmul@a+2,7
  3928  0096  289F               	goto	l2452
  3929  0097                     l2450:
  3930  0097  3000               	movlw	0
  3931  0098  00B5               	movwf	___flmul@a+3
  3932  0099  3000               	movlw	0
  3933  009A  00B4               	movwf	___flmul@a+2
  3934  009B  3000               	movlw	0
  3935  009C  00B3               	movwf	___flmul@a+1
  3936  009D  3000               	movlw	0
  3937  009E  00B2               	movwf	___flmul@a
  3938  009F                     l2452:
  3939  009F  083C               	movf	___flmul@aexp,w
  3940  00A0  1903               	btfsc	3,2
  3941  00A1  28A3               	goto	u3421
  3942  00A2  28A4               	goto	u3420
  3943  00A3                     u3421:
  3944  00A3  28A9               	goto	l2456
  3945  00A4                     u3420:
  3946  00A4                     l2454:
  3947  00A4  0841               	movf	___flmul@bexp,w
  3948  00A5  1D03               	btfss	3,2
  3949  00A6  28A8               	goto	u3431
  3950  00A7  28A9               	goto	u3430
  3951  00A8                     u3431:
  3952  00A8  28B2               	goto	l2460
  3953  00A9                     u3430:
  3954  00A9                     l2456:
  3955  00A9  3000               	movlw	0
  3956  00AA  00B1               	movwf	?___flmul+3
  3957  00AB  3000               	movlw	0
  3958  00AC  00B0               	movwf	?___flmul+2
  3959  00AD  3000               	movlw	0
  3960  00AE  00AF               	movwf	?___flmul+1
  3961  00AF  3000               	movlw	0
  3962  00B0  00AE               	movwf	?___flmul
  3963  00B1  2BA5               	goto	l685
  3964  00B2                     l2460:
  3965  00B2  082E               	movf	___flmul@b,w
  3966  00B3  00B6               	movwf	??___flmul
  3967  00B4  0836               	movf	??___flmul,w
  3968  00B5  00A0               	movwf	__Umul8_16@multiplicand
  3969  00B6  0834               	movf	___flmul@a+2,w
  3970  00B7  120A  158A  2409  120A  118A  	fcall	__Umul8_16
  3971  00BC  1283               	bcf	3,5	;RP0=0, select bank0
  3972  00BD  1303               	bcf	3,6	;RP1=0, select bank0
  3973  00BE  0821               	movf	?__Umul8_16+1,w
  3974  00BF  00C7               	movwf	___flmul@temp+1
  3975  00C0  0820               	movf	?__Umul8_16,w
  3976  00C1  00C6               	movwf	___flmul@temp
  3977  00C2                     l2462:
  3978  00C2  0846               	movf	___flmul@temp,w
  3979  00C3  00B6               	movwf	??___flmul
  3980  00C4  01B7               	clrf	??___flmul+1
  3981  00C5  01B8               	clrf	??___flmul+2
  3982  00C6  01B9               	clrf	??___flmul+3
  3983  00C7  0839               	movf	??___flmul+3,w
  3984  00C8  00C0               	movwf	___flmul@grs+3
  3985  00C9  0838               	movf	??___flmul+2,w
  3986  00CA  00BF               	movwf	___flmul@grs+2
  3987  00CB  0837               	movf	??___flmul+1,w
  3988  00CC  00BE               	movwf	___flmul@grs+1
  3989  00CD  0836               	movf	??___flmul,w
  3990  00CE  00BD               	movwf	___flmul@grs
  3991  00CF                     l2464:
  3992  00CF  0847               	movf	___flmul@temp+1,w
  3993  00D0  00B6               	movwf	??___flmul
  3994  00D1  01B7               	clrf	??___flmul+1
  3995  00D2  01B8               	clrf	??___flmul+2
  3996  00D3  01B9               	clrf	??___flmul+3
  3997  00D4  0839               	movf	??___flmul+3,w
  3998  00D5  00C5               	movwf	___flmul@prod+3
  3999  00D6  0838               	movf	??___flmul+2,w
  4000  00D7  00C4               	movwf	___flmul@prod+2
  4001  00D8  0837               	movf	??___flmul+1,w
  4002  00D9  00C3               	movwf	___flmul@prod+1
  4003  00DA  0836               	movf	??___flmul,w
  4004  00DB  00C2               	movwf	___flmul@prod
  4005  00DC  082F               	movf	___flmul@b+1,w
  4006  00DD  00B6               	movwf	??___flmul
  4007  00DE  0836               	movf	??___flmul,w
  4008  00DF  00A0               	movwf	__Umul8_16@multiplicand
  4009  00E0  0833               	movf	___flmul@a+1,w
  4010  00E1  120A  158A  2409  120A  118A  	fcall	__Umul8_16
  4011  00E6  1283               	bcf	3,5	;RP0=0, select bank0
  4012  00E7  1303               	bcf	3,6	;RP1=0, select bank0
  4013  00E8  0821               	movf	?__Umul8_16+1,w
  4014  00E9  00C7               	movwf	___flmul@temp+1
  4015  00EA  0820               	movf	?__Umul8_16,w
  4016  00EB  00C6               	movwf	___flmul@temp
  4017  00EC                     l2466:
  4018  00EC  0846               	movf	___flmul@temp,w
  4019  00ED  00B6               	movwf	??___flmul
  4020  00EE  01B7               	clrf	??___flmul+1
  4021  00EF  01B8               	clrf	??___flmul+2
  4022  00F0  01B9               	clrf	??___flmul+3
  4023  00F1  0836               	movf	??___flmul,w
  4024  00F2  07BD               	addwf	___flmul@grs,f
  4025  00F3  0837               	movf	??___flmul+1,w
  4026  00F4  1103               	clrz
  4027  00F5  1803               	skipnc
  4028  00F6  3E01               	addlw	1
  4029  00F7  1903               	skipnz
  4030  00F8  28FA               	goto	u3441
  4031  00F9  07BE               	addwf	___flmul@grs+1,f
  4032  00FA                     u3441:
  4033  00FA  0838               	movf	??___flmul+2,w
  4034  00FB  1103               	clrz
  4035  00FC  1803               	skipnc
  4036  00FD  3E01               	addlw	1
  4037  00FE  1903               	skipnz
  4038  00FF  2901               	goto	u3442
  4039  0100  07BF               	addwf	___flmul@grs+2,f
  4040  0101                     u3442:
  4041  0101  0839               	movf	??___flmul+3,w
  4042  0102  1103               	clrz
  4043  0103  1803               	skipnc
  4044  0104  3E01               	addlw	1
  4045  0105  1903               	skipnz
  4046  0106  2908               	goto	u3443
  4047  0107  07C0               	addwf	___flmul@grs+3,f
  4048  0108                     u3443:
  4049  0108                     l2468:
  4050  0108  0847               	movf	___flmul@temp+1,w
  4051  0109  00B6               	movwf	??___flmul
  4052  010A  01B7               	clrf	??___flmul+1
  4053  010B  01B8               	clrf	??___flmul+2
  4054  010C  01B9               	clrf	??___flmul+3
  4055  010D  0836               	movf	??___flmul,w
  4056  010E  07C2               	addwf	___flmul@prod,f
  4057  010F  0837               	movf	??___flmul+1,w
  4058  0110  1103               	clrz
  4059  0111  1803               	skipnc
  4060  0112  3E01               	addlw	1
  4061  0113  1903               	skipnz
  4062  0114  2916               	goto	u3451
  4063  0115  07C3               	addwf	___flmul@prod+1,f
  4064  0116                     u3451:
  4065  0116  0838               	movf	??___flmul+2,w
  4066  0117  1103               	clrz
  4067  0118  1803               	skipnc
  4068  0119  3E01               	addlw	1
  4069  011A  1903               	skipnz
  4070  011B  291D               	goto	u3452
  4071  011C  07C4               	addwf	___flmul@prod+2,f
  4072  011D                     u3452:
  4073  011D  0839               	movf	??___flmul+3,w
  4074  011E  1103               	clrz
  4075  011F  1803               	skipnc
  4076  0120  3E01               	addlw	1
  4077  0121  1903               	skipnz
  4078  0122  2924               	goto	u3453
  4079  0123  07C5               	addwf	___flmul@prod+3,f
  4080  0124                     u3453:
  4081  0124  0830               	movf	___flmul@b+2,w
  4082  0125  00B6               	movwf	??___flmul
  4083  0126  0836               	movf	??___flmul,w
  4084  0127  00A0               	movwf	__Umul8_16@multiplicand
  4085  0128  0832               	movf	___flmul@a,w
  4086  0129  120A  158A  2409  120A  118A  	fcall	__Umul8_16
  4087  012E  1283               	bcf	3,5	;RP0=0, select bank0
  4088  012F  1303               	bcf	3,6	;RP1=0, select bank0
  4089  0130  0821               	movf	?__Umul8_16+1,w
  4090  0131  00C7               	movwf	___flmul@temp+1
  4091  0132  0820               	movf	?__Umul8_16,w
  4092  0133  00C6               	movwf	___flmul@temp
  4093  0134                     l2470:
  4094  0134  0846               	movf	___flmul@temp,w
  4095  0135  00B6               	movwf	??___flmul
  4096  0136  01B7               	clrf	??___flmul+1
  4097  0137  01B8               	clrf	??___flmul+2
  4098  0138  01B9               	clrf	??___flmul+3
  4099  0139  0836               	movf	??___flmul,w
  4100  013A  07BD               	addwf	___flmul@grs,f
  4101  013B  0837               	movf	??___flmul+1,w
  4102  013C  1103               	clrz
  4103  013D  1803               	skipnc
  4104  013E  3E01               	addlw	1
  4105  013F  1903               	skipnz
  4106  0140  2942               	goto	u3461
  4107  0141  07BE               	addwf	___flmul@grs+1,f
  4108  0142                     u3461:
  4109  0142  0838               	movf	??___flmul+2,w
  4110  0143  1103               	clrz
  4111  0144  1803               	skipnc
  4112  0145  3E01               	addlw	1
  4113  0146  1903               	skipnz
  4114  0147  2949               	goto	u3462
  4115  0148  07BF               	addwf	___flmul@grs+2,f
  4116  0149                     u3462:
  4117  0149  0839               	movf	??___flmul+3,w
  4118  014A  1103               	clrz
  4119  014B  1803               	skipnc
  4120  014C  3E01               	addlw	1
  4121  014D  1903               	skipnz
  4122  014E  2950               	goto	u3463
  4123  014F  07C0               	addwf	___flmul@grs+3,f
  4124  0150                     u3463:
  4125  0150                     l2472:
  4126  0150  0847               	movf	___flmul@temp+1,w
  4127  0151  00B6               	movwf	??___flmul
  4128  0152  01B7               	clrf	??___flmul+1
  4129  0153  01B8               	clrf	??___flmul+2
  4130  0154  01B9               	clrf	??___flmul+3
  4131  0155  0836               	movf	??___flmul,w
  4132  0156  07C2               	addwf	___flmul@prod,f
  4133  0157  0837               	movf	??___flmul+1,w
  4134  0158  1103               	clrz
  4135  0159  1803               	skipnc
  4136  015A  3E01               	addlw	1
  4137  015B  1903               	skipnz
  4138  015C  295E               	goto	u3471
  4139  015D  07C3               	addwf	___flmul@prod+1,f
  4140  015E                     u3471:
  4141  015E  0838               	movf	??___flmul+2,w
  4142  015F  1103               	clrz
  4143  0160  1803               	skipnc
  4144  0161  3E01               	addlw	1
  4145  0162  1903               	skipnz
  4146  0163  2965               	goto	u3472
  4147  0164  07C4               	addwf	___flmul@prod+2,f
  4148  0165                     u3472:
  4149  0165  0839               	movf	??___flmul+3,w
  4150  0166  1103               	clrz
  4151  0167  1803               	skipnc
  4152  0168  3E01               	addlw	1
  4153  0169  1903               	skipnz
  4154  016A  296C               	goto	u3473
  4155  016B  07C5               	addwf	___flmul@prod+3,f
  4156  016C                     u3473:
  4157  016C                     l2474:
  4158  016C  3008               	movlw	8
  4159  016D  00B6               	movwf	??___flmul
  4160  016E                     u3485:
  4161  016E  1003               	clrc
  4162  016F  0DBD               	rlf	___flmul@grs,f
  4163  0170  0DBE               	rlf	___flmul@grs+1,f
  4164  0171  0DBF               	rlf	___flmul@grs+2,f
  4165  0172  0DC0               	rlf	___flmul@grs+3,f
  4166  0173  0BB6               	decfsz	??___flmul,f
  4167  0174  296E               	goto	u3485
  4168  0175                     l2476:
  4169  0175  082F               	movf	___flmul@b+1,w
  4170  0176  00B6               	movwf	??___flmul
  4171  0177  0836               	movf	??___flmul,w
  4172  0178  00A0               	movwf	__Umul8_16@multiplicand
  4173  0179  0832               	movf	___flmul@a,w
  4174  017A  120A  158A  2409  120A  118A  	fcall	__Umul8_16
  4175  017F  1283               	bcf	3,5	;RP0=0, select bank0
  4176  0180  1303               	bcf	3,6	;RP1=0, select bank0
  4177  0181  0821               	movf	?__Umul8_16+1,w
  4178  0182  00C7               	movwf	___flmul@temp+1
  4179  0183  0820               	movf	?__Umul8_16,w
  4180  0184  00C6               	movwf	___flmul@temp
  4181  0185                     l2478:
  4182  0185  0846               	movf	___flmul@temp,w
  4183  0186  00B6               	movwf	??___flmul
  4184  0187  0847               	movf	___flmul@temp+1,w
  4185  0188  00B7               	movwf	??___flmul+1
  4186  0189  01B8               	clrf	??___flmul+2
  4187  018A  01B9               	clrf	??___flmul+3
  4188  018B  0836               	movf	??___flmul,w
  4189  018C  07BD               	addwf	___flmul@grs,f
  4190  018D  0837               	movf	??___flmul+1,w
  4191  018E  1103               	clrz
  4192  018F  1803               	skipnc
  4193  0190  3E01               	addlw	1
  4194  0191  1903               	skipnz
  4195  0192  2994               	goto	u3491
  4196  0193  07BE               	addwf	___flmul@grs+1,f
  4197  0194                     u3491:
  4198  0194  0838               	movf	??___flmul+2,w
  4199  0195  1103               	clrz
  4200  0196  1803               	skipnc
  4201  0197  3E01               	addlw	1
  4202  0198  1903               	skipnz
  4203  0199  299B               	goto	u3492
  4204  019A  07BF               	addwf	___flmul@grs+2,f
  4205  019B                     u3492:
  4206  019B  0839               	movf	??___flmul+3,w
  4207  019C  1103               	clrz
  4208  019D  1803               	skipnc
  4209  019E  3E01               	addlw	1
  4210  019F  1903               	skipnz
  4211  01A0  29A2               	goto	u3493
  4212  01A1  07C0               	addwf	___flmul@grs+3,f
  4213  01A2                     u3493:
  4214  01A2                     l2480:
  4215  01A2  082E               	movf	___flmul@b,w
  4216  01A3  00B6               	movwf	??___flmul
  4217  01A4  0836               	movf	??___flmul,w
  4218  01A5  00A0               	movwf	__Umul8_16@multiplicand
  4219  01A6  0833               	movf	___flmul@a+1,w
  4220  01A7  120A  158A  2409  120A  118A  	fcall	__Umul8_16
  4221  01AC  1283               	bcf	3,5	;RP0=0, select bank0
  4222  01AD  1303               	bcf	3,6	;RP1=0, select bank0
  4223  01AE  0821               	movf	?__Umul8_16+1,w
  4224  01AF  00C7               	movwf	___flmul@temp+1
  4225  01B0  0820               	movf	?__Umul8_16,w
  4226  01B1  00C6               	movwf	___flmul@temp
  4227  01B2                     l2482:
  4228  01B2  0846               	movf	___flmul@temp,w
  4229  01B3  00B6               	movwf	??___flmul
  4230  01B4  0847               	movf	___flmul@temp+1,w
  4231  01B5  00B7               	movwf	??___flmul+1
  4232  01B6  01B8               	clrf	??___flmul+2
  4233  01B7  01B9               	clrf	??___flmul+3
  4234  01B8  0836               	movf	??___flmul,w
  4235  01B9  07BD               	addwf	___flmul@grs,f
  4236  01BA  0837               	movf	??___flmul+1,w
  4237  01BB  1103               	clrz
  4238  01BC  1803               	skipnc
  4239  01BD  3E01               	addlw	1
  4240  01BE  1903               	skipnz
  4241  01BF  29C1               	goto	u3501
  4242  01C0  07BE               	addwf	___flmul@grs+1,f
  4243  01C1                     u3501:
  4244  01C1  0838               	movf	??___flmul+2,w
  4245  01C2  1103               	clrz
  4246  01C3  1803               	skipnc
  4247  01C4  3E01               	addlw	1
  4248  01C5  1903               	skipnz
  4249  01C6  29C8               	goto	u3502
  4250  01C7  07BF               	addwf	___flmul@grs+2,f
  4251  01C8                     u3502:
  4252  01C8  0839               	movf	??___flmul+3,w
  4253  01C9  1103               	clrz
  4254  01CA  1803               	skipnc
  4255  01CB  3E01               	addlw	1
  4256  01CC  1903               	skipnz
  4257  01CD  29CF               	goto	u3503
  4258  01CE  07C0               	addwf	___flmul@grs+3,f
  4259  01CF                     u3503:
  4260  01CF                     l2484:
  4261  01CF  3008               	movlw	8
  4262  01D0  00B6               	movwf	??___flmul
  4263  01D1                     u3515:
  4264  01D1  1003               	clrc
  4265  01D2  0DBD               	rlf	___flmul@grs,f
  4266  01D3  0DBE               	rlf	___flmul@grs+1,f
  4267  01D4  0DBF               	rlf	___flmul@grs+2,f
  4268  01D5  0DC0               	rlf	___flmul@grs+3,f
  4269  01D6  0BB6               	decfsz	??___flmul,f
  4270  01D7  29D1               	goto	u3515
  4271  01D8  082E               	movf	___flmul@b,w
  4272  01D9  00B6               	movwf	??___flmul
  4273  01DA  0836               	movf	??___flmul,w
  4274  01DB  00A0               	movwf	__Umul8_16@multiplicand
  4275  01DC  0832               	movf	___flmul@a,w
  4276  01DD  120A  158A  2409  120A  118A  	fcall	__Umul8_16
  4277  01E2  1283               	bcf	3,5	;RP0=0, select bank0
  4278  01E3  1303               	bcf	3,6	;RP1=0, select bank0
  4279  01E4  0821               	movf	?__Umul8_16+1,w
  4280  01E5  00C7               	movwf	___flmul@temp+1
  4281  01E6  0820               	movf	?__Umul8_16,w
  4282  01E7  00C6               	movwf	___flmul@temp
  4283  01E8                     l2486:
  4284  01E8  0846               	movf	___flmul@temp,w
  4285  01E9  00B6               	movwf	??___flmul
  4286  01EA  0847               	movf	___flmul@temp+1,w
  4287  01EB  00B7               	movwf	??___flmul+1
  4288  01EC  01B8               	clrf	??___flmul+2
  4289  01ED  01B9               	clrf	??___flmul+3
  4290  01EE  0836               	movf	??___flmul,w
  4291  01EF  07BD               	addwf	___flmul@grs,f
  4292  01F0  0837               	movf	??___flmul+1,w
  4293  01F1  1103               	clrz
  4294  01F2  1803               	skipnc
  4295  01F3  3E01               	addlw	1
  4296  01F4  1903               	skipnz
  4297  01F5  29F7               	goto	u3521
  4298  01F6  07BE               	addwf	___flmul@grs+1,f
  4299  01F7                     u3521:
  4300  01F7  0838               	movf	??___flmul+2,w
  4301  01F8  1103               	clrz
  4302  01F9  1803               	skipnc
  4303  01FA  3E01               	addlw	1
  4304  01FB  1903               	skipnz
  4305  01FC  29FE               	goto	u3522
  4306  01FD  07BF               	addwf	___flmul@grs+2,f
  4307  01FE                     u3522:
  4308  01FE  0839               	movf	??___flmul+3,w
  4309  01FF  1103               	clrz
  4310  0200  1803               	skipnc
  4311  0201  3E01               	addlw	1
  4312  0202  1903               	skipnz
  4313  0203  2A05               	goto	u3523
  4314  0204  07C0               	addwf	___flmul@grs+3,f
  4315  0205                     u3523:
  4316  0205                     l2488:
  4317  0205  082F               	movf	___flmul@b+1,w
  4318  0206  00B6               	movwf	??___flmul
  4319  0207  0836               	movf	??___flmul,w
  4320  0208  00A0               	movwf	__Umul8_16@multiplicand
  4321  0209  0834               	movf	___flmul@a+2,w
  4322  020A  120A  158A  2409  120A  118A  	fcall	__Umul8_16
  4323  020F  1283               	bcf	3,5	;RP0=0, select bank0
  4324  0210  1303               	bcf	3,6	;RP1=0, select bank0
  4325  0211  0821               	movf	?__Umul8_16+1,w
  4326  0212  00C7               	movwf	___flmul@temp+1
  4327  0213  0820               	movf	?__Umul8_16,w
  4328  0214  00C6               	movwf	___flmul@temp
  4329  0215  0846               	movf	___flmul@temp,w
  4330  0216  00B6               	movwf	??___flmul
  4331  0217  0847               	movf	___flmul@temp+1,w
  4332  0218  00B7               	movwf	??___flmul+1
  4333  0219  01B8               	clrf	??___flmul+2
  4334  021A  01B9               	clrf	??___flmul+3
  4335  021B  0836               	movf	??___flmul,w
  4336  021C  07C2               	addwf	___flmul@prod,f
  4337  021D  0837               	movf	??___flmul+1,w
  4338  021E  1103               	clrz
  4339  021F  1803               	skipnc
  4340  0220  3E01               	addlw	1
  4341  0221  1903               	skipnz
  4342  0222  2A24               	goto	u3531
  4343  0223  07C3               	addwf	___flmul@prod+1,f
  4344  0224                     u3531:
  4345  0224  0838               	movf	??___flmul+2,w
  4346  0225  1103               	clrz
  4347  0226  1803               	skipnc
  4348  0227  3E01               	addlw	1
  4349  0228  1903               	skipnz
  4350  0229  2A2B               	goto	u3532
  4351  022A  07C4               	addwf	___flmul@prod+2,f
  4352  022B                     u3532:
  4353  022B  0839               	movf	??___flmul+3,w
  4354  022C  1103               	clrz
  4355  022D  1803               	skipnc
  4356  022E  3E01               	addlw	1
  4357  022F  1903               	skipnz
  4358  0230  2A32               	goto	u3533
  4359  0231  07C5               	addwf	___flmul@prod+3,f
  4360  0232                     u3533:
  4361  0232                     l2490:
  4362  0232  0830               	movf	___flmul@b+2,w
  4363  0233  00B6               	movwf	??___flmul
  4364  0234  0836               	movf	??___flmul,w
  4365  0235  00A0               	movwf	__Umul8_16@multiplicand
  4366  0236  0833               	movf	___flmul@a+1,w
  4367  0237  120A  158A  2409  120A  118A  	fcall	__Umul8_16
  4368  023C  1283               	bcf	3,5	;RP0=0, select bank0
  4369  023D  1303               	bcf	3,6	;RP1=0, select bank0
  4370  023E  0821               	movf	?__Umul8_16+1,w
  4371  023F  00C7               	movwf	___flmul@temp+1
  4372  0240  0820               	movf	?__Umul8_16,w
  4373  0241  00C6               	movwf	___flmul@temp
  4374  0242                     l2492:
  4375  0242  0846               	movf	___flmul@temp,w
  4376  0243  00B6               	movwf	??___flmul
  4377  0244  0847               	movf	___flmul@temp+1,w
  4378  0245  00B7               	movwf	??___flmul+1
  4379  0246  01B8               	clrf	??___flmul+2
  4380  0247  01B9               	clrf	??___flmul+3
  4381  0248  0836               	movf	??___flmul,w
  4382  0249  07C2               	addwf	___flmul@prod,f
  4383  024A  0837               	movf	??___flmul+1,w
  4384  024B  1103               	clrz
  4385  024C  1803               	skipnc
  4386  024D  3E01               	addlw	1
  4387  024E  1903               	skipnz
  4388  024F  2A51               	goto	u3541
  4389  0250  07C3               	addwf	___flmul@prod+1,f
  4390  0251                     u3541:
  4391  0251  0838               	movf	??___flmul+2,w
  4392  0252  1103               	clrz
  4393  0253  1803               	skipnc
  4394  0254  3E01               	addlw	1
  4395  0255  1903               	skipnz
  4396  0256  2A58               	goto	u3542
  4397  0257  07C4               	addwf	___flmul@prod+2,f
  4398  0258                     u3542:
  4399  0258  0839               	movf	??___flmul+3,w
  4400  0259  1103               	clrz
  4401  025A  1803               	skipnc
  4402  025B  3E01               	addlw	1
  4403  025C  1903               	skipnz
  4404  025D  2A5F               	goto	u3543
  4405  025E  07C5               	addwf	___flmul@prod+3,f
  4406  025F                     u3543:
  4407  025F  0830               	movf	___flmul@b+2,w
  4408  0260  00B6               	movwf	??___flmul
  4409  0261  0836               	movf	??___flmul,w
  4410  0262  00A0               	movwf	__Umul8_16@multiplicand
  4411  0263  0834               	movf	___flmul@a+2,w
  4412  0264  120A  158A  2409  120A  118A  	fcall	__Umul8_16
  4413  0269  1283               	bcf	3,5	;RP0=0, select bank0
  4414  026A  1303               	bcf	3,6	;RP1=0, select bank0
  4415  026B  0821               	movf	?__Umul8_16+1,w
  4416  026C  00C7               	movwf	___flmul@temp+1
  4417  026D  0820               	movf	?__Umul8_16,w
  4418  026E  00C6               	movwf	___flmul@temp
  4419  026F                     l2494:
  4420  026F  0846               	movf	___flmul@temp,w
  4421  0270  00B6               	movwf	??___flmul
  4422  0271  0847               	movf	___flmul@temp+1,w
  4423  0272  00B7               	movwf	??___flmul+1
  4424  0273  01B8               	clrf	??___flmul+2
  4425  0274  01B9               	clrf	??___flmul+3
  4426  0275  3008               	movlw	8
  4427  0276                     u3555:
  4428  0276  1003               	clrc
  4429  0277  0DB6               	rlf	??___flmul,f
  4430  0278  0DB7               	rlf	??___flmul+1,f
  4431  0279  0DB8               	rlf	??___flmul+2,f
  4432  027A  0DB9               	rlf	??___flmul+3,f
  4433  027B                     u3550:
  4434  027B  3EFF               	addlw	-1
  4435  027C  1D03               	skipz
  4436  027D  2A76               	goto	u3555
  4437  027E  0836               	movf	??___flmul,w
  4438  027F  07C2               	addwf	___flmul@prod,f
  4439  0280  0837               	movf	??___flmul+1,w
  4440  0281  1103               	clrz
  4441  0282  1803               	skipnc
  4442  0283  3E01               	addlw	1
  4443  0284  1903               	skipnz
  4444  0285  2A87               	goto	u3561
  4445  0286  07C3               	addwf	___flmul@prod+1,f
  4446  0287                     u3561:
  4447  0287  0838               	movf	??___flmul+2,w
  4448  0288  1103               	clrz
  4449  0289  1803               	skipnc
  4450  028A  3E01               	addlw	1
  4451  028B  1903               	skipnz
  4452  028C  2A8E               	goto	u3562
  4453  028D  07C4               	addwf	___flmul@prod+2,f
  4454  028E                     u3562:
  4455  028E  0839               	movf	??___flmul+3,w
  4456  028F  1103               	clrz
  4457  0290  1803               	skipnc
  4458  0291  3E01               	addlw	1
  4459  0292  1903               	skipnz
  4460  0293  2A95               	goto	u3563
  4461  0294  07C5               	addwf	___flmul@prod+3,f
  4462  0295                     u3563:
  4463  0295                     l2496:
  4464  0295  083D               	movf	___flmul@grs,w
  4465  0296  00B6               	movwf	??___flmul
  4466  0297  083E               	movf	___flmul@grs+1,w
  4467  0298  00B7               	movwf	??___flmul+1
  4468  0299  083F               	movf	___flmul@grs+2,w
  4469  029A  00B8               	movwf	??___flmul+2
  4470  029B  0840               	movf	___flmul@grs+3,w
  4471  029C  00B9               	movwf	??___flmul+3
  4472  029D  3018               	movlw	24
  4473  029E                     u3575:
  4474  029E  1003               	clrc
  4475  029F  0CB9               	rrf	??___flmul+3,f
  4476  02A0  0CB8               	rrf	??___flmul+2,f
  4477  02A1  0CB7               	rrf	??___flmul+1,f
  4478  02A2  0CB6               	rrf	??___flmul,f
  4479  02A3                     u3570:
  4480  02A3  3EFF               	addlw	-1
  4481  02A4  1D03               	skipz
  4482  02A5  2A9E               	goto	u3575
  4483  02A6  0836               	movf	??___flmul,w
  4484  02A7  07C2               	addwf	___flmul@prod,f
  4485  02A8  0837               	movf	??___flmul+1,w
  4486  02A9  1103               	clrz
  4487  02AA  1803               	skipnc
  4488  02AB  3E01               	addlw	1
  4489  02AC  1903               	skipnz
  4490  02AD  2AAF               	goto	u3581
  4491  02AE  07C3               	addwf	___flmul@prod+1,f
  4492  02AF                     u3581:
  4493  02AF  0838               	movf	??___flmul+2,w
  4494  02B0  1103               	clrz
  4495  02B1  1803               	skipnc
  4496  02B2  3E01               	addlw	1
  4497  02B3  1903               	skipnz
  4498  02B4  2AB6               	goto	u3582
  4499  02B5  07C4               	addwf	___flmul@prod+2,f
  4500  02B6                     u3582:
  4501  02B6  0839               	movf	??___flmul+3,w
  4502  02B7  1103               	clrz
  4503  02B8  1803               	skipnc
  4504  02B9  3E01               	addlw	1
  4505  02BA  1903               	skipnz
  4506  02BB  2ABD               	goto	u3583
  4507  02BC  07C5               	addwf	___flmul@prod+3,f
  4508  02BD                     u3583:
  4509  02BD                     l2498:
  4510  02BD  3008               	movlw	8
  4511  02BE  00B6               	movwf	??___flmul
  4512  02BF                     u3595:
  4513  02BF  1003               	clrc
  4514  02C0  0DBD               	rlf	___flmul@grs,f
  4515  02C1  0DBE               	rlf	___flmul@grs+1,f
  4516  02C2  0DBF               	rlf	___flmul@grs+2,f
  4517  02C3  0DC0               	rlf	___flmul@grs+3,f
  4518  02C4  0BB6               	decfsz	??___flmul,f
  4519  02C5  2ABF               	goto	u3595
  4520  02C6                     l2500:
  4521  02C6  0841               	movf	___flmul@bexp,w
  4522  02C7  073C               	addwf	___flmul@aexp,w
  4523  02C8  00B6               	movwf	??___flmul
  4524  02C9  01B7               	clrf	??___flmul+1
  4525  02CA  0DB7               	rlf	??___flmul+1,f
  4526  02CB  0836               	movf	??___flmul,w
  4527  02CC  3E82               	addlw	130
  4528  02CD  00C6               	movwf	___flmul@temp
  4529  02CE  0837               	movf	??___flmul+1,w
  4530  02CF  1803               	skipnc
  4531  02D0  3E01               	addlw	1
  4532  02D1  3EFF               	addlw	255
  4533  02D2  00C7               	movwf	___flmul@temp+1
  4534  02D3  2AF1               	goto	l2512
  4535  02D4                     l2502:
  4536  02D4  3001               	movlw	1
  4537  02D5  00B6               	movwf	??___flmul
  4538  02D6                     u3605:
  4539  02D6  1003               	clrc
  4540  02D7  0DC2               	rlf	___flmul@prod,f
  4541  02D8  0DC3               	rlf	___flmul@prod+1,f
  4542  02D9  0DC4               	rlf	___flmul@prod+2,f
  4543  02DA  0DC5               	rlf	___flmul@prod+3,f
  4544  02DB  0BB6               	decfsz	??___flmul,f
  4545  02DC  2AD6               	goto	u3605
  4546  02DD                     l2504:
  4547  02DD  1FC0               	btfss	___flmul@grs+3,7
  4548  02DE  2AE0               	goto	u3611
  4549  02DF  2AE1               	goto	u3610
  4550  02E0                     u3611:
  4551  02E0  2AE2               	goto	l2508
  4552  02E1                     u3610:
  4553  02E1                     l2506:
  4554  02E1  1442               	bsf	___flmul@prod,0
  4555  02E2                     l2508:
  4556  02E2  3001               	movlw	1
  4557  02E3  00B6               	movwf	??___flmul
  4558  02E4                     u3625:
  4559  02E4  1003               	clrc
  4560  02E5  0DBD               	rlf	___flmul@grs,f
  4561  02E6  0DBE               	rlf	___flmul@grs+1,f
  4562  02E7  0DBF               	rlf	___flmul@grs+2,f
  4563  02E8  0DC0               	rlf	___flmul@grs+3,f
  4564  02E9  0BB6               	decfsz	??___flmul,f
  4565  02EA  2AE4               	goto	u3625
  4566  02EB                     l2510:
  4567  02EB  30FF               	movlw	255
  4568  02EC  07C6               	addwf	___flmul@temp,f
  4569  02ED  1803               	skipnc
  4570  02EE  0AC7               	incf	___flmul@temp+1,f
  4571  02EF  30FF               	movlw	255
  4572  02F0  07C7               	addwf	___flmul@temp+1,f
  4573  02F1                     l2512:
  4574  02F1  1FC4               	btfss	___flmul@prod+2,7
  4575  02F2  2AF4               	goto	u3631
  4576  02F3  2AF5               	goto	u3630
  4577  02F4                     u3631:
  4578  02F4  2AD4               	goto	l2502
  4579  02F5                     u3630:
  4580  02F5                     l2514:
  4581  02F5  01BC               	clrf	___flmul@aexp
  4582  02F6                     l2516:
  4583  02F6  1FC0               	btfss	___flmul@grs+3,7
  4584  02F7  2AF9               	goto	u3641
  4585  02F8  2AFA               	goto	u3640
  4586  02F9                     u3641:
  4587  02F9  2B16               	goto	l2524
  4588  02FA                     u3640:
  4589  02FA                     l2518:
  4590  02FA  30FF               	movlw	255
  4591  02FB  053D               	andwf	___flmul@grs,w
  4592  02FC  00B6               	movwf	??___flmul
  4593  02FD  30FF               	movlw	255
  4594  02FE  053E               	andwf	___flmul@grs+1,w
  4595  02FF  00B7               	movwf	??___flmul+1
  4596  0300  30FF               	movlw	255
  4597  0301  053F               	andwf	___flmul@grs+2,w
  4598  0302  00B8               	movwf	??___flmul+2
  4599  0303  307F               	movlw	127
  4600  0304  0540               	andwf	___flmul@grs+3,w
  4601  0305  00B9               	movwf	??___flmul+3
  4602  0306  0839               	movf	??___flmul+3,w
  4603  0307  0438               	iorwf	??___flmul+2,w
  4604  0308  0437               	iorwf	??___flmul+1,w
  4605  0309  0436               	iorwf	??___flmul,w
  4606  030A  1903               	skipnz
  4607  030B  2B0D               	goto	u3651
  4608  030C  2B0E               	goto	u3650
  4609  030D                     u3651:
  4610  030D  2B11               	goto	l691
  4611  030E                     u3650:
  4612  030E                     l2520:
  4613  030E  01BC               	clrf	___flmul@aexp
  4614  030F  0ABC               	incf	___flmul@aexp,f
  4615  0310  2B16               	goto	l2524
  4616  0311                     l691:
  4617  0311  1C42               	btfss	___flmul@prod,0
  4618  0312  2B14               	goto	u3661
  4619  0313  2B15               	goto	u3660
  4620  0314                     u3661:
  4621  0314  2B16               	goto	l2524
  4622  0315                     u3660:
  4623  0315  2B0E               	goto	l2520
  4624  0316                     l2524:
  4625  0316  083C               	movf	___flmul@aexp,w
  4626  0317  1903               	btfsc	3,2
  4627  0318  2B1A               	goto	u3671
  4628  0319  2B1B               	goto	u3670
  4629  031A                     u3671:
  4630  031A  2B4C               	goto	l2534
  4631  031B                     u3670:
  4632  031B                     l2526:
  4633  031B  3001               	movlw	1
  4634  031C  07C2               	addwf	___flmul@prod,f
  4635  031D  3000               	movlw	0
  4636  031E  1803               	skipnc
  4637  031F  3001               	movlw	1
  4638  0320  07C3               	addwf	___flmul@prod+1,f
  4639  0321  3000               	movlw	0
  4640  0322  1803               	skipnc
  4641  0323  3001               	movlw	1
  4642  0324  07C4               	addwf	___flmul@prod+2,f
  4643  0325  3000               	movlw	0
  4644  0326  1803               	skipnc
  4645  0327  3001               	movlw	1
  4646  0328  07C5               	addwf	___flmul@prod+3,f
  4647  0329                     l2528:
  4648  0329  1C45               	btfss	___flmul@prod+3,0
  4649  032A  2B2C               	goto	u3681
  4650  032B  2B2D               	goto	u3680
  4651  032C                     u3681:
  4652  032C  2B4C               	goto	l2534
  4653  032D                     u3680:
  4654  032D                     l2530:
  4655  032D  0842               	movf	___flmul@prod,w
  4656  032E  00B6               	movwf	??___flmul
  4657  032F  0843               	movf	___flmul@prod+1,w
  4658  0330  00B7               	movwf	??___flmul+1
  4659  0331  0844               	movf	___flmul@prod+2,w
  4660  0332  00B8               	movwf	??___flmul+2
  4661  0333  0845               	movf	___flmul@prod+3,w
  4662  0334  00B9               	movwf	??___flmul+3
  4663  0335  3001               	movlw	1
  4664  0336  00BA               	movwf	??___flmul+4
  4665  0337                     u3695:
  4666  0337  0D39               	rlf	??___flmul+3,w
  4667  0338  0CB9               	rrf	??___flmul+3,f
  4668  0339  0CB8               	rrf	??___flmul+2,f
  4669  033A  0CB7               	rrf	??___flmul+1,f
  4670  033B  0CB6               	rrf	??___flmul,f
  4671  033C                     u3690:
  4672  033C  0BBA               	decfsz	??___flmul+4,f
  4673  033D  2B37               	goto	u3695
  4674  033E  0839               	movf	??___flmul+3,w
  4675  033F  00C5               	movwf	___flmul@prod+3
  4676  0340  0838               	movf	??___flmul+2,w
  4677  0341  00C4               	movwf	___flmul@prod+2
  4678  0342  0837               	movf	??___flmul+1,w
  4679  0343  00C3               	movwf	___flmul@prod+1
  4680  0344  0836               	movf	??___flmul,w
  4681  0345  00C2               	movwf	___flmul@prod
  4682  0346                     l2532:
  4683  0346  3001               	movlw	1
  4684  0347  07C6               	addwf	___flmul@temp,f
  4685  0348  1803               	skipnc
  4686  0349  0AC7               	incf	___flmul@temp+1,f
  4687  034A  3000               	movlw	0
  4688  034B  07C7               	addwf	___flmul@temp+1,f
  4689  034C                     l2534:
  4690  034C  0847               	movf	___flmul@temp+1,w
  4691  034D  3A80               	xorlw	128
  4692  034E  00FF               	movwf	btemp+1
  4693  034F  3080               	movlw	128
  4694  0350  027F               	subwf	btemp+1,w
  4695  0351  1D03               	skipz
  4696  0352  2B55               	goto	u3705
  4697  0353  30FF               	movlw	255
  4698  0354  0246               	subwf	___flmul@temp,w
  4699  0355                     u3705:
  4700  0355  1C03               	skipc
  4701  0356  2B58               	goto	u3701
  4702  0357  2B59               	goto	u3700
  4703  0358                     u3701:
  4704  0358  2B64               	goto	l2538
  4705  0359                     u3700:
  4706  0359                     l2536:
  4707  0359  307F               	movlw	127
  4708  035A  1283               	bcf	3,5	;RP0=0, select bank0
  4709  035B  1303               	bcf	3,6	;RP1=0, select bank0
  4710  035C  00C5               	movwf	___flmul@prod+3
  4711  035D  3080               	movlw	128
  4712  035E  00C4               	movwf	___flmul@prod+2
  4713  035F  3000               	movlw	0
  4714  0360  00C3               	movwf	___flmul@prod+1
  4715  0361  3000               	movlw	0
  4716  0362  00C2               	movwf	___flmul@prod
  4717  0363  2B99               	goto	l697
  4718  0364                     l2538:
  4719  0364  1283               	bcf	3,5	;RP0=0, select bank0
  4720  0365  1303               	bcf	3,6	;RP1=0, select bank0
  4721  0366  0847               	movf	___flmul@temp+1,w
  4722  0367  3A80               	xorlw	128
  4723  0368  00FF               	movwf	btemp+1
  4724  0369  3080               	movlw	128
  4725  036A  027F               	subwf	btemp+1,w
  4726  036B  1D03               	skipz
  4727  036C  2B6F               	goto	u3715
  4728  036D  3001               	movlw	1
  4729  036E  0246               	subwf	___flmul@temp,w
  4730  036F                     u3715:
  4731  036F  1803               	skipnc
  4732  0370  2B72               	goto	u3711
  4733  0371  2B73               	goto	u3710
  4734  0372                     u3711:
  4735  0372  2B7F               	goto	l2544
  4736  0373                     u3710:
  4737  0373                     l2540:
  4738  0373  3000               	movlw	0
  4739  0374  1283               	bcf	3,5	;RP0=0, select bank0
  4740  0375  1303               	bcf	3,6	;RP1=0, select bank0
  4741  0376  00C5               	movwf	___flmul@prod+3
  4742  0377  3000               	movlw	0
  4743  0378  00C4               	movwf	___flmul@prod+2
  4744  0379  3000               	movlw	0
  4745  037A  00C3               	movwf	___flmul@prod+1
  4746  037B  3000               	movlw	0
  4747  037C  00C2               	movwf	___flmul@prod
  4748  037D                     l2542:
  4749  037D  01BB               	clrf	___flmul@sign
  4750  037E  2B99               	goto	l697
  4751  037F                     l2544:
  4752  037F  1283               	bcf	3,5	;RP0=0, select bank0
  4753  0380  1303               	bcf	3,6	;RP1=0, select bank0
  4754  0381  0846               	movf	___flmul@temp,w
  4755  0382  00B6               	movwf	??___flmul
  4756  0383  0836               	movf	??___flmul,w
  4757  0384  00C1               	movwf	___flmul@bexp
  4758  0385  30FF               	movlw	255
  4759  0386  05C2               	andwf	___flmul@prod,f
  4760  0387  30FF               	movlw	255
  4761  0388  05C3               	andwf	___flmul@prod+1,f
  4762  0389  307F               	movlw	127
  4763  038A  05C4               	andwf	___flmul@prod+2,f
  4764  038B  3000               	movlw	0
  4765  038C  05C5               	andwf	___flmul@prod+3,f
  4766  038D                     l2546:
  4767  038D  1C41               	btfss	___flmul@bexp,0
  4768  038E  2B90               	goto	u3721
  4769  038F  2B91               	goto	u3720
  4770  0390                     u3721:
  4771  0390  2B92               	goto	l2550
  4772  0391                     u3720:
  4773  0391                     l2548:
  4774  0391  17C4               	bsf	___flmul@prod+2,7
  4775  0392                     l2550:
  4776  0392  0841               	movf	___flmul@bexp,w
  4777  0393  00B6               	movwf	??___flmul
  4778  0394  1003               	clrc
  4779  0395  0C36               	rrf	??___flmul,w
  4780  0396  00B7               	movwf	??___flmul+1
  4781  0397  0837               	movf	??___flmul+1,w
  4782  0398  00C5               	movwf	___flmul@prod+3
  4783  0399                     l697:
  4784  0399  083B               	movf	___flmul@sign,w
  4785  039A  00B6               	movwf	??___flmul
  4786  039B  0836               	movf	??___flmul,w
  4787  039C  04C5               	iorwf	___flmul@prod+3,f
  4788  039D                     l2552:
  4789  039D  0845               	movf	___flmul@prod+3,w
  4790  039E  00B1               	movwf	?___flmul+3
  4791  039F  0844               	movf	___flmul@prod+2,w
  4792  03A0  00B0               	movwf	?___flmul+2
  4793  03A1  0843               	movf	___flmul@prod+1,w
  4794  03A2  00AF               	movwf	?___flmul+1
  4795  03A3  0842               	movf	___flmul@prod,w
  4796  03A4  00AE               	movwf	?___flmul
  4797  03A5                     l685:
  4798  03A5  0008               	return
  4799  03A6                     __end_of___flmul:
  4800                           
  4801                           	psect	text17
  4802  0C09                     __ptext17:	
  4803 ;; *************** function __Umul8_16 *****************
  4804 ;; Defined at:
  4805 ;;		line 4 in file "C:\Program Files\Microchip\xc8\v2.32\pic\sources\c90\common\Umul8_16.c"
  4806 ;; Parameters:    Size  Location     Type
  4807 ;;  multiplier      1    wreg     unsigned char 
  4808 ;;  multiplicand    1    0[BANK0 ] unsigned char 
  4809 ;; Auto vars:     Size  Location     Type
  4810 ;;  multiplier      1    8[BANK0 ] unsigned char 
  4811 ;;  word_mpld       2    6[BANK0 ] unsigned int 
  4812 ;;  product         2    4[BANK0 ] unsigned int 
  4813 ;; Return value:  Size  Location     Type
  4814 ;;                  2    0[BANK0 ] unsigned int 
  4815 ;; Registers used:
  4816 ;;		wreg, status,2, status,0
  4817 ;; Tracked objects:
  4818 ;;		On entry : 0/0
  4819 ;;		On exit  : 0/0
  4820 ;;		Unchanged: 0/0
  4821 ;; Data sizes:     COMMON   BANK0   BANK1   BANK3   BANK2
  4822 ;;      Params:         0       2       0       0       0
  4823 ;;      Locals:         0       5       0       0       0
  4824 ;;      Temps:          0       2       0       0       0
  4825 ;;      Totals:         0       9       0       0       0
  4826 ;;Total ram usage:        9 bytes
  4827 ;; Hardware stack levels used: 1
  4828 ;; Hardware stack levels required when called: 2
  4829 ;; This function calls:
  4830 ;;		Nothing
  4831 ;; This function is called by:
  4832 ;;		___flmul
  4833 ;; This function uses a non-reentrant model
  4834 ;;
  4835                           
  4836                           
  4837                           ;psect for function __Umul8_16
  4838  0C09                     __Umul8_16:
  4839                           
  4840                           ;incstack = 0
  4841                           ; Regs used in __Umul8_16: [wreg+status,2+status,0]
  4842                           ;__Umul8_16@multiplier stored from wreg
  4843  0C09  1283               	bcf	3,5	;RP0=0, select bank0
  4844  0C0A  1303               	bcf	3,6	;RP1=0, select bank0
  4845  0C0B  00A8               	movwf	__Umul8_16@multiplier
  4846  0C0C                     l2296:
  4847  0C0C  01A4               	clrf	__Umul8_16@product
  4848  0C0D  01A5               	clrf	__Umul8_16@product+1
  4849  0C0E                     l2298:
  4850  0C0E  0820               	movf	__Umul8_16@multiplicand,w
  4851  0C0F  00A2               	movwf	??__Umul8_16
  4852  0C10  01A3               	clrf	??__Umul8_16+1
  4853  0C11  0822               	movf	??__Umul8_16,w
  4854  0C12  00A6               	movwf	__Umul8_16@word_mpld
  4855  0C13  0823               	movf	??__Umul8_16+1,w
  4856  0C14  00A7               	movwf	__Umul8_16@word_mpld+1
  4857  0C15                     l2300:
  4858  0C15  1C28               	btfss	__Umul8_16@multiplier,0
  4859  0C16  2C18               	goto	u3121
  4860  0C17  2C19               	goto	u3120
  4861  0C18                     u3121:
  4862  0C18  2C1F               	goto	l704
  4863  0C19                     u3120:
  4864  0C19                     l2302:
  4865  0C19  0826               	movf	__Umul8_16@word_mpld,w
  4866  0C1A  07A4               	addwf	__Umul8_16@product,f
  4867  0C1B  1803               	skipnc
  4868  0C1C  0AA5               	incf	__Umul8_16@product+1,f
  4869  0C1D  0827               	movf	__Umul8_16@word_mpld+1,w
  4870  0C1E  07A5               	addwf	__Umul8_16@product+1,f
  4871  0C1F                     l704:
  4872  0C1F  3001               	movlw	1
  4873  0C20                     u3135:
  4874  0C20  1003               	clrc
  4875  0C21  0DA6               	rlf	__Umul8_16@word_mpld,f
  4876  0C22  0DA7               	rlf	__Umul8_16@word_mpld+1,f
  4877  0C23  3EFF               	addlw	-1
  4878  0C24  1D03               	skipz
  4879  0C25  2C20               	goto	u3135
  4880  0C26  1003               	clrc
  4881  0C27  0CA8               	rrf	__Umul8_16@multiplier,f
  4882  0C28                     l2304:
  4883  0C28  0828               	movf	__Umul8_16@multiplier,w
  4884  0C29  1D03               	btfss	3,2
  4885  0C2A  2C2C               	goto	u3141
  4886  0C2B  2C2D               	goto	u3140
  4887  0C2C                     u3141:
  4888  0C2C  2C15               	goto	l2300
  4889  0C2D                     u3140:
  4890  0C2D                     l2306:
  4891  0C2D  0825               	movf	__Umul8_16@product+1,w
  4892  0C2E  00A1               	movwf	?__Umul8_16+1
  4893  0C2F  0824               	movf	__Umul8_16@product,w
  4894  0C30  00A0               	movwf	?__Umul8_16
  4895  0C31                     l706:
  4896  0C31  0008               	return
  4897  0C32                     __end_of__Umul8_16:
  4898                           
  4899                           	psect	text18
  4900  03A6                     __ptext18:	
  4901 ;; *************** function ___fladd *****************
  4902 ;; Defined at:
  4903 ;;		line 10 in file "C:\Program Files\Microchip\xc8\v2.32\pic\sources\c90\common\sprcadd.c"
  4904 ;; Parameters:    Size  Location     Type
  4905 ;;  b               4   40[BANK0 ] unsigned int 
  4906 ;;  a               4   44[BANK0 ] unsigned int 
  4907 ;; Auto vars:     Size  Location     Type
  4908 ;;  grs             1   59[BANK0 ] unsigned char 
  4909 ;;  bexp            1   58[BANK0 ] unsigned char 
  4910 ;;  aexp            1   57[BANK0 ] unsigned char 
  4911 ;;  signs           1   56[BANK0 ] unsigned char 
  4912 ;; Return value:  Size  Location     Type
  4913 ;;                  4   40[BANK0 ] unsigned char 
  4914 ;; Registers used:
  4915 ;;		wreg, status,2, status,0, btemp+1
  4916 ;; Tracked objects:
  4917 ;;		On entry : 0/0
  4918 ;;		On exit  : 0/0
  4919 ;;		Unchanged: 0/0
  4920 ;; Data sizes:     COMMON   BANK0   BANK1   BANK3   BANK2
  4921 ;;      Params:         0       8       0       0       0
  4922 ;;      Locals:         0       4       0       0       0
  4923 ;;      Temps:          0       8       0       0       0
  4924 ;;      Totals:         0      20       0       0       0
  4925 ;;Total ram usage:       20 bytes
  4926 ;; Hardware stack levels used: 1
  4927 ;; Hardware stack levels required when called: 2
  4928 ;; This function calls:
  4929 ;;		Nothing
  4930 ;; This function is called by:
  4931 ;;		_celsius_value
  4932 ;;		_Fahrenheit_value
  4933 ;; This function uses a non-reentrant model
  4934 ;;
  4935                           
  4936                           
  4937                           ;psect for function ___fladd
  4938  03A6                     ___fladd:
  4939  03A6                     l1754:	
  4940                           ;incstack = 0
  4941                           ; Regs used in ___fladd: [wreg+status,2+status,0+btemp+1]
  4942                           
  4943  03A6  1283               	bcf	3,5	;RP0=0, select bank0
  4944  03A7  1303               	bcf	3,6	;RP1=0, select bank0
  4945  03A8  084B               	movf	___fladd@b+3,w
  4946  03A9  3980               	andlw	128
  4947  03AA  00D0               	movwf	??___fladd
  4948  03AB  0850               	movf	??___fladd,w
  4949  03AC  00D8               	movwf	___fladd@signs
  4950  03AD                     l1756:
  4951  03AD  084B               	movf	___fladd@b+3,w
  4952  03AE  00D0               	movwf	??___fladd
  4953  03AF  0750               	addwf	??___fladd,w
  4954  03B0  00D1               	movwf	??___fladd+1
  4955  03B1  0851               	movf	??___fladd+1,w
  4956  03B2  00DA               	movwf	___fladd@bexp
  4957  03B3                     l1758:
  4958  03B3  1FCA               	btfss	___fladd@b+2,7
  4959  03B4  2BB6               	goto	u1961
  4960  03B5  2BB7               	goto	u1960
  4961  03B6                     u1961:
  4962  03B6  2BB8               	goto	l1762
  4963  03B7                     u1960:
  4964  03B7                     l1760:
  4965  03B7  145A               	bsf	___fladd@bexp,0
  4966  03B8                     l1762:
  4967  03B8  085A               	movf	___fladd@bexp,w
  4968  03B9  1903               	btfsc	3,2
  4969  03BA  2BBC               	goto	u1971
  4970  03BB  2BBD               	goto	u1970
  4971  03BC                     u1971:
  4972  03BC  2BCD               	goto	l1772
  4973  03BD                     u1970:
  4974  03BD                     l1764:
  4975  03BD  0A5A               	incf	___fladd@bexp,w
  4976  03BE  1D03               	btfss	3,2
  4977  03BF  2BC1               	goto	u1981
  4978  03C0  2BC2               	goto	u1980
  4979  03C1                     u1981:
  4980  03C1  2BCA               	goto	l1768
  4981  03C2                     u1980:
  4982  03C2                     l1766:
  4983  03C2  3000               	movlw	0
  4984  03C3  00CB               	movwf	___fladd@b+3
  4985  03C4  3000               	movlw	0
  4986  03C5  00CA               	movwf	___fladd@b+2
  4987  03C6  3000               	movlw	0
  4988  03C7  00C9               	movwf	___fladd@b+1
  4989  03C8  3000               	movlw	0
  4990  03C9  00C8               	movwf	___fladd@b
  4991  03CA                     l1768:
  4992  03CA  17CA               	bsf	___fladd@b+2,7
  4993  03CB                     l1770:
  4994  03CB  01CB               	clrf	___fladd@b+3
  4995  03CC  2BD5               	goto	l1774
  4996  03CD                     l1772:
  4997  03CD  3000               	movlw	0
  4998  03CE  00CB               	movwf	___fladd@b+3
  4999  03CF  3000               	movlw	0
  5000  03D0  00CA               	movwf	___fladd@b+2
  5001  03D1  3000               	movlw	0
  5002  03D2  00C9               	movwf	___fladd@b+1
  5003  03D3  3000               	movlw	0
  5004  03D4  00C8               	movwf	___fladd@b
  5005  03D5                     l1774:
  5006  03D5  084F               	movf	___fladd@a+3,w
  5007  03D6  3980               	andlw	128
  5008  03D7  00D0               	movwf	??___fladd
  5009  03D8  0850               	movf	??___fladd,w
  5010  03D9  00D9               	movwf	___fladd@aexp
  5011  03DA                     l1776:
  5012  03DA  0859               	movf	___fladd@aexp,w
  5013  03DB  0658               	xorwf	___fladd@signs,w
  5014  03DC  1903               	skipnz
  5015  03DD  2BDF               	goto	u1991
  5016  03DE  2BE0               	goto	u1990
  5017  03DF                     u1991:
  5018  03DF  2BE1               	goto	l1780
  5019  03E0                     u1990:
  5020  03E0                     l1778:
  5021  03E0  1758               	bsf	___fladd@signs,6
  5022  03E1                     l1780:
  5023  03E1  084F               	movf	___fladd@a+3,w
  5024  03E2  00D0               	movwf	??___fladd
  5025  03E3  0750               	addwf	??___fladd,w
  5026  03E4  00D1               	movwf	??___fladd+1
  5027  03E5  0851               	movf	??___fladd+1,w
  5028  03E6  00D9               	movwf	___fladd@aexp
  5029  03E7                     l1782:
  5030  03E7  1FCE               	btfss	___fladd@a+2,7
  5031  03E8  2BEA               	goto	u2001
  5032  03E9  2BEB               	goto	u2000
  5033  03EA                     u2001:
  5034  03EA  2BEC               	goto	l1786
  5035  03EB                     u2000:
  5036  03EB                     l1784:
  5037  03EB  1459               	bsf	___fladd@aexp,0
  5038  03EC                     l1786:
  5039  03EC  0859               	movf	___fladd@aexp,w
  5040  03ED  1903               	btfsc	3,2
  5041  03EE  2BF0               	goto	u2011
  5042  03EF  2BF1               	goto	u2010
  5043  03F0                     u2011:
  5044  03F0  2C01               	goto	l1796
  5045  03F1                     u2010:
  5046  03F1                     l1788:
  5047  03F1  0A59               	incf	___fladd@aexp,w
  5048  03F2  1D03               	btfss	3,2
  5049  03F3  2BF5               	goto	u2021
  5050  03F4  2BF6               	goto	u2020
  5051  03F5                     u2021:
  5052  03F5  2BFE               	goto	l1792
  5053  03F6                     u2020:
  5054  03F6                     l1790:
  5055  03F6  3000               	movlw	0
  5056  03F7  00CF               	movwf	___fladd@a+3
  5057  03F8  3000               	movlw	0
  5058  03F9  00CE               	movwf	___fladd@a+2
  5059  03FA  3000               	movlw	0
  5060  03FB  00CD               	movwf	___fladd@a+1
  5061  03FC  3000               	movlw	0
  5062  03FD  00CC               	movwf	___fladd@a
  5063  03FE                     l1792:
  5064  03FE  17CE               	bsf	___fladd@a+2,7
  5065  03FF                     l1794:
  5066  03FF  01CF               	clrf	___fladd@a+3
  5067  0400  2C09               	goto	l589
  5068  0401                     l1796:
  5069  0401  3000               	movlw	0
  5070  0402  00CF               	movwf	___fladd@a+3
  5071  0403  3000               	movlw	0
  5072  0404  00CE               	movwf	___fladd@a+2
  5073  0405  3000               	movlw	0
  5074  0406  00CD               	movwf	___fladd@a+1
  5075  0407  3000               	movlw	0
  5076  0408  00CC               	movwf	___fladd@a
  5077  0409                     l589:
  5078  0409  085A               	movf	___fladd@bexp,w
  5079  040A  0259               	subwf	___fladd@aexp,w
  5080  040B  1803               	skipnc
  5081  040C  2C0E               	goto	u2031
  5082  040D  2C0F               	goto	u2030
  5083  040E                     u2031:
  5084  040E  2C53               	goto	l1832
  5085  040F                     u2030:
  5086  040F                     l1798:
  5087  040F  1F58               	btfss	___fladd@signs,6
  5088  0410  2C12               	goto	u2041
  5089  0411  2C13               	goto	u2040
  5090  0412                     u2041:
  5091  0412  2C17               	goto	l1802
  5092  0413                     u2040:
  5093  0413                     l1800:
  5094  0413  3080               	movlw	128
  5095  0414  00D0               	movwf	??___fladd
  5096  0415  0850               	movf	??___fladd,w
  5097  0416  06D8               	xorwf	___fladd@signs,f
  5098  0417                     l1802:
  5099  0417  085A               	movf	___fladd@bexp,w
  5100  0418  00D0               	movwf	??___fladd
  5101  0419  0850               	movf	??___fladd,w
  5102  041A  00DB               	movwf	___fladd@grs
  5103  041B                     l1804:
  5104  041B  0859               	movf	___fladd@aexp,w
  5105  041C  00D0               	movwf	??___fladd
  5106  041D  0850               	movf	??___fladd,w
  5107  041E  00DA               	movwf	___fladd@bexp
  5108  041F                     l1806:
  5109  041F  085B               	movf	___fladd@grs,w
  5110  0420  00D0               	movwf	??___fladd
  5111  0421  0850               	movf	??___fladd,w
  5112  0422  00D9               	movwf	___fladd@aexp
  5113  0423                     l1808:
  5114  0423  0848               	movf	___fladd@b,w
  5115  0424  00D0               	movwf	??___fladd
  5116  0425  0850               	movf	??___fladd,w
  5117  0426  00DB               	movwf	___fladd@grs
  5118  0427                     l1810:
  5119  0427  084C               	movf	___fladd@a,w
  5120  0428  00D0               	movwf	??___fladd
  5121  0429  0850               	movf	??___fladd,w
  5122  042A  00C8               	movwf	___fladd@b
  5123  042B                     l1812:
  5124  042B  085B               	movf	___fladd@grs,w
  5125  042C  00D0               	movwf	??___fladd
  5126  042D  0850               	movf	??___fladd,w
  5127  042E  00CC               	movwf	___fladd@a
  5128  042F                     l1814:
  5129  042F  0849               	movf	___fladd@b+1,w
  5130  0430  00D0               	movwf	??___fladd
  5131  0431  0850               	movf	??___fladd,w
  5132  0432  00DB               	movwf	___fladd@grs
  5133  0433                     l1816:
  5134  0433  084D               	movf	___fladd@a+1,w
  5135  0434  00D0               	movwf	??___fladd
  5136  0435  0850               	movf	??___fladd,w
  5137  0436  00C9               	movwf	___fladd@b+1
  5138  0437                     l1818:
  5139  0437  085B               	movf	___fladd@grs,w
  5140  0438  00D0               	movwf	??___fladd
  5141  0439  0850               	movf	??___fladd,w
  5142  043A  00CD               	movwf	___fladd@a+1
  5143  043B                     l1820:
  5144  043B  084A               	movf	___fladd@b+2,w
  5145  043C  00D0               	movwf	??___fladd
  5146  043D  0850               	movf	??___fladd,w
  5147  043E  00DB               	movwf	___fladd@grs
  5148  043F                     l1822:
  5149  043F  084E               	movf	___fladd@a+2,w
  5150  0440  00D0               	movwf	??___fladd
  5151  0441  0850               	movf	??___fladd,w
  5152  0442  00CA               	movwf	___fladd@b+2
  5153  0443                     l1824:
  5154  0443  085B               	movf	___fladd@grs,w
  5155  0444  00D0               	movwf	??___fladd
  5156  0445  0850               	movf	??___fladd,w
  5157  0446  00CE               	movwf	___fladd@a+2
  5158  0447                     l1826:
  5159  0447  084B               	movf	___fladd@b+3,w
  5160  0448  00D0               	movwf	??___fladd
  5161  0449  0850               	movf	??___fladd,w
  5162  044A  00DB               	movwf	___fladd@grs
  5163  044B                     l1828:
  5164  044B  084F               	movf	___fladd@a+3,w
  5165  044C  00D0               	movwf	??___fladd
  5166  044D  0850               	movf	??___fladd,w
  5167  044E  00CB               	movwf	___fladd@b+3
  5168  044F                     l1830:
  5169  044F  085B               	movf	___fladd@grs,w
  5170  0450  00D0               	movwf	??___fladd
  5171  0451  0850               	movf	??___fladd,w
  5172  0452  00CF               	movwf	___fladd@a+3
  5173  0453                     l1832:
  5174  0453  01DB               	clrf	___fladd@grs
  5175  0454                     l1834:
  5176  0454  0859               	movf	___fladd@aexp,w
  5177  0455  00D0               	movwf	??___fladd
  5178  0456  01D1               	clrf	??___fladd+1
  5179  0457  0851               	movf	??___fladd+1,w
  5180  0458  00D3               	movwf	??___fladd+3
  5181  0459  085A               	movf	___fladd@bexp,w
  5182  045A  0250               	subwf	??___fladd,w
  5183  045B  00D2               	movwf	??___fladd+2
  5184  045C  1C03               	skipc
  5185  045D  03D3               	decf	??___fladd+3,f
  5186  045E  0853               	movf	??___fladd+3,w
  5187  045F  3A80               	xorlw	128
  5188  0460  00FF               	movwf	btemp+1
  5189  0461  3080               	movlw	128
  5190  0462  027F               	subwf	btemp+1,w
  5191  0463  1D03               	skipz
  5192  0464  2C67               	goto	u2055
  5193  0465  301A               	movlw	26
  5194  0466  0252               	subwf	??___fladd+2,w
  5195  0467                     u2055:
  5196  0467  1C03               	skipc
  5197  0468  2C6A               	goto	u2051
  5198  0469  2C6B               	goto	u2050
  5199  046A                     u2051:
  5200  046A  2CA8               	goto	l1850
  5201  046B                     u2050:
  5202  046B                     l1836:
  5203  046B  1283               	bcf	3,5	;RP0=0, select bank0
  5204  046C  1303               	bcf	3,6	;RP1=0, select bank0
  5205  046D  084B               	movf	___fladd@b+3,w
  5206  046E  044A               	iorwf	___fladd@b+2,w
  5207  046F  0449               	iorwf	___fladd@b+1,w
  5208  0470  0448               	iorwf	___fladd@b,w
  5209  0471  1D03               	skipz
  5210  0472  2C74               	goto	u2061
  5211  0473  2C76               	goto	u2060
  5212  0474                     u2061:
  5213  0474  3001               	movlw	1
  5214  0475  2C77               	goto	u2070
  5215  0476                     u2060:
  5216  0476  3000               	movlw	0
  5217  0477                     u2070:
  5218  0477  00D0               	movwf	??___fladd
  5219  0478  0850               	movf	??___fladd,w
  5220  0479  00DB               	movwf	___fladd@grs
  5221  047A  3000               	movlw	0
  5222  047B  00CB               	movwf	___fladd@b+3
  5223  047C  3000               	movlw	0
  5224  047D  00CA               	movwf	___fladd@b+2
  5225  047E  3000               	movlw	0
  5226  047F  00C9               	movwf	___fladd@b+1
  5227  0480  3000               	movlw	0
  5228  0481  00C8               	movwf	___fladd@b
  5229  0482  0859               	movf	___fladd@aexp,w
  5230  0483  00D0               	movwf	??___fladd
  5231  0484  0850               	movf	??___fladd,w
  5232  0485  00DA               	movwf	___fladd@bexp
  5233  0486  2CB0               	goto	l593
  5234  0487                     l595:
  5235  0487  1C5B               	btfss	___fladd@grs,0
  5236  0488  2C8A               	goto	u2081
  5237  0489  2C8B               	goto	u2080
  5238  048A                     u2081:
  5239  048A  2C94               	goto	l1840
  5240  048B                     u2080:
  5241  048B                     l1838:
  5242  048B  085B               	movf	___fladd@grs,w
  5243  048C  00D0               	movwf	??___fladd
  5244  048D  1003               	clrc
  5245  048E  0C50               	rrf	??___fladd,w
  5246  048F  3801               	iorlw	1
  5247  0490  00D1               	movwf	??___fladd+1
  5248  0491  0851               	movf	??___fladd+1,w
  5249  0492  00DB               	movwf	___fladd@grs
  5250  0493  2C96               	goto	l1842
  5251  0494                     l1840:
  5252  0494  1003               	clrc
  5253  0495  0CDB               	rrf	___fladd@grs,f
  5254  0496                     l1842:
  5255  0496  1C48               	btfss	___fladd@b,0
  5256  0497  2C99               	goto	u2091
  5257  0498  2C9A               	goto	u2090
  5258  0499                     u2091:
  5259  0499  2C9B               	goto	l1846
  5260  049A                     u2090:
  5261  049A                     l1844:
  5262  049A  17DB               	bsf	___fladd@grs,7
  5263  049B                     l1846:
  5264  049B  3001               	movlw	1
  5265  049C  00D0               	movwf	??___fladd
  5266  049D                     u2105:
  5267  049D  0D4B               	rlf	___fladd@b+3,w
  5268  049E  0CCB               	rrf	___fladd@b+3,f
  5269  049F  0CCA               	rrf	___fladd@b+2,f
  5270  04A0  0CC9               	rrf	___fladd@b+1,f
  5271  04A1  0CC8               	rrf	___fladd@b,f
  5272  04A2  0BD0               	decfsz	??___fladd& (0+127),f
  5273  04A3  2C9D               	goto	u2105
  5274  04A4                     l1848:
  5275  04A4  3001               	movlw	1
  5276  04A5  00D0               	movwf	??___fladd
  5277  04A6  0850               	movf	??___fladd,w
  5278  04A7  07DA               	addwf	___fladd@bexp,f
  5279  04A8                     l1850:
  5280  04A8  1283               	bcf	3,5	;RP0=0, select bank0
  5281  04A9  1303               	bcf	3,6	;RP1=0, select bank0
  5282  04AA  0859               	movf	___fladd@aexp,w
  5283  04AB  025A               	subwf	___fladd@bexp,w
  5284  04AC  1C03               	skipc
  5285  04AD  2CAF               	goto	u2111
  5286  04AE  2CB0               	goto	u2110
  5287  04AF                     u2111:
  5288  04AF  2C87               	goto	l595
  5289  04B0                     u2110:
  5290  04B0                     l593:
  5291  04B0  1B58               	btfsc	___fladd@signs,6
  5292  04B1  2CB3               	goto	u2121
  5293  04B2  2CB4               	goto	u2120
  5294  04B3                     u2121:
  5295  04B3  2CFF               	goto	l1876
  5296  04B4                     u2120:
  5297  04B4                     l1852:
  5298  04B4  085A               	movf	___fladd@bexp,w
  5299  04B5  1D03               	btfss	3,2
  5300  04B6  2CB8               	goto	u2131
  5301  04B7  2CB9               	goto	u2130
  5302  04B8                     u2131:
  5303  04B8  2CC2               	goto	l1858
  5304  04B9                     u2130:
  5305  04B9                     l1854:
  5306  04B9  3000               	movlw	0
  5307  04BA  00CB               	movwf	?___fladd+3
  5308  04BB  3000               	movlw	0
  5309  04BC  00CA               	movwf	?___fladd+2
  5310  04BD  3000               	movlw	0
  5311  04BE  00C9               	movwf	?___fladd+1
  5312  04BF  3000               	movlw	0
  5313  04C0  00C8               	movwf	?___fladd
  5314  04C1  2E2D               	goto	l602
  5315  04C2                     l1858:
  5316  04C2  084C               	movf	___fladd@a,w
  5317  04C3  07C8               	addwf	___fladd@b,f
  5318  04C4  084D               	movf	___fladd@a+1,w
  5319  04C5  1103               	clrz
  5320  04C6  1803               	skipnc
  5321  04C7  3E01               	addlw	1
  5322  04C8  1903               	skipnz
  5323  04C9  2CCB               	goto	u2141
  5324  04CA  07C9               	addwf	___fladd@b+1,f
  5325  04CB                     u2141:
  5326  04CB  084E               	movf	___fladd@a+2,w
  5327  04CC  1103               	clrz
  5328  04CD  1803               	skipnc
  5329  04CE  3E01               	addlw	1
  5330  04CF  1903               	skipnz
  5331  04D0  2CD2               	goto	u2142
  5332  04D1  07CA               	addwf	___fladd@b+2,f
  5333  04D2                     u2142:
  5334  04D2  084F               	movf	___fladd@a+3,w
  5335  04D3  1103               	clrz
  5336  04D4  1803               	skipnc
  5337  04D5  3E01               	addlw	1
  5338  04D6  1903               	skipnz
  5339  04D7  2CD9               	goto	u2143
  5340  04D8  07CB               	addwf	___fladd@b+3,f
  5341  04D9                     u2143:
  5342  04D9                     l1860:
  5343  04D9  1C4B               	btfss	___fladd@b+3,0
  5344  04DA  2CDC               	goto	u2151
  5345  04DB  2CDD               	goto	u2150
  5346  04DC                     u2151:
  5347  04DC  2DB3               	goto	l1910
  5348  04DD                     u2150:
  5349  04DD                     l1862:
  5350  04DD  1C5B               	btfss	___fladd@grs,0
  5351  04DE  2CE0               	goto	u2161
  5352  04DF  2CE1               	goto	u2160
  5353  04E0                     u2161:
  5354  04E0  2CEA               	goto	l1866
  5355  04E1                     u2160:
  5356  04E1                     l1864:
  5357  04E1  085B               	movf	___fladd@grs,w
  5358  04E2  00D0               	movwf	??___fladd
  5359  04E3  1003               	clrc
  5360  04E4  0C50               	rrf	??___fladd,w
  5361  04E5  3801               	iorlw	1
  5362  04E6  00D1               	movwf	??___fladd+1
  5363  04E7  0851               	movf	??___fladd+1,w
  5364  04E8  00DB               	movwf	___fladd@grs
  5365  04E9  2CEC               	goto	l1868
  5366  04EA                     l1866:
  5367  04EA  1003               	clrc
  5368  04EB  0CDB               	rrf	___fladd@grs,f
  5369  04EC                     l1868:
  5370  04EC  1C48               	btfss	___fladd@b,0
  5371  04ED  2CEF               	goto	u2171
  5372  04EE  2CF0               	goto	u2170
  5373  04EF                     u2171:
  5374  04EF  2CF1               	goto	l1872
  5375  04F0                     u2170:
  5376  04F0                     l1870:
  5377  04F0  17DB               	bsf	___fladd@grs,7
  5378  04F1                     l1872:
  5379  04F1  3001               	movlw	1
  5380  04F2  00D0               	movwf	??___fladd
  5381  04F3                     u2185:
  5382  04F3  0D4B               	rlf	___fladd@b+3,w
  5383  04F4  0CCB               	rrf	___fladd@b+3,f
  5384  04F5  0CCA               	rrf	___fladd@b+2,f
  5385  04F6  0CC9               	rrf	___fladd@b+1,f
  5386  04F7  0CC8               	rrf	___fladd@b,f
  5387  04F8  0BD0               	decfsz	??___fladd& (0+127),f
  5388  04F9  2CF3               	goto	u2185
  5389  04FA                     l1874:
  5390  04FA  3001               	movlw	1
  5391  04FB  00D0               	movwf	??___fladd
  5392  04FC  0850               	movf	??___fladd,w
  5393  04FD  07DA               	addwf	___fladd@bexp,f
  5394  04FE  2DB3               	goto	l1910
  5395  04FF                     l1876:
  5396  04FF  084B               	movf	___fladd@b+3,w
  5397  0500  3A80               	xorlw	128
  5398  0501  00FF               	movwf	btemp+1
  5399  0502  084F               	movf	___fladd@a+3,w
  5400  0503  3A80               	xorlw	128
  5401  0504  027F               	subwf	btemp+1,w
  5402  0505  1D03               	skipz
  5403  0506  2D11               	goto	u2193
  5404  0507  084E               	movf	___fladd@a+2,w
  5405  0508  024A               	subwf	___fladd@b+2,w
  5406  0509  1D03               	skipz
  5407  050A  2D11               	goto	u2193
  5408  050B  084D               	movf	___fladd@a+1,w
  5409  050C  0249               	subwf	___fladd@b+1,w
  5410  050D  1D03               	skipz
  5411  050E  2D11               	goto	u2193
  5412  050F  084C               	movf	___fladd@a,w
  5413  0510  0248               	subwf	___fladd@b,w
  5414  0511                     u2193:
  5415  0511  1803               	skipnc
  5416  0512  2D14               	goto	u2191
  5417  0513  2D15               	goto	u2190
  5418  0514                     u2191:
  5419  0514  2D6D               	goto	l1886
  5420  0515                     u2190:
  5421  0515                     l1878:
  5422  0515  30FF               	movlw	255
  5423  0516  00D0               	movwf	??___fladd
  5424  0517  30FF               	movlw	255
  5425  0518  00D1               	movwf	??___fladd+1
  5426  0519  30FF               	movlw	255
  5427  051A  00D2               	movwf	??___fladd+2
  5428  051B  30FF               	movlw	255
  5429  051C  00D3               	movwf	??___fladd+3
  5430  051D  084C               	movf	___fladd@a,w
  5431  051E  00D4               	movwf	??___fladd+4
  5432  051F  084D               	movf	___fladd@a+1,w
  5433  0520  00D5               	movwf	??___fladd+5
  5434  0521  084E               	movf	___fladd@a+2,w
  5435  0522  00D6               	movwf	??___fladd+6
  5436  0523  084F               	movf	___fladd@a+3,w
  5437  0524  00D7               	movwf	??___fladd+7
  5438  0525  0848               	movf	___fladd@b,w
  5439  0526  02D4               	subwf	??___fladd+4,f
  5440  0527  0849               	movf	___fladd@b+1,w
  5441  0528  1C03               	skipc
  5442  0529  0F49               	incfsz	___fladd@b+1,w
  5443  052A  2D2C               	goto	u2201
  5444  052B  2D2D               	goto	u2202
  5445  052C                     u2201:
  5446  052C  02D5               	subwf	??___fladd+5,f
  5447  052D                     u2202:
  5448  052D  084A               	movf	___fladd@b+2,w
  5449  052E  1C03               	skipc
  5450  052F  0F4A               	incfsz	___fladd@b+2,w
  5451  0530  2D32               	goto	u2203
  5452  0531  2D33               	goto	u2204
  5453  0532                     u2203:
  5454  0532  02D6               	subwf	??___fladd+6,f
  5455  0533                     u2204:
  5456  0533  084B               	movf	___fladd@b+3,w
  5457  0534  1C03               	skipc
  5458  0535  0F4B               	incfsz	___fladd@b+3,w
  5459  0536  2D38               	goto	u2205
  5460  0537  2D39               	goto	u2206
  5461  0538                     u2205:
  5462  0538  02D7               	subwf	??___fladd+7,f
  5463  0539                     u2206:
  5464  0539  0854               	movf	??___fladd+4,w
  5465  053A  07D0               	addwf	??___fladd,f
  5466  053B  0855               	movf	??___fladd+5,w
  5467  053C  1803               	skipnc
  5468  053D  0F55               	incfsz	??___fladd+5,w
  5469  053E  2D40               	goto	u2210
  5470  053F  2D41               	goto	u2211
  5471  0540                     u2210:
  5472  0540  07D1               	addwf	??___fladd+1,f
  5473  0541                     u2211:
  5474  0541  0856               	movf	??___fladd+6,w
  5475  0542  1803               	skipnc
  5476  0543  0F56               	incfsz	??___fladd+6,w
  5477  0544  2D46               	goto	u2212
  5478  0545  2D47               	goto	u2213
  5479  0546                     u2212:
  5480  0546  07D2               	addwf	??___fladd+2,f
  5481  0547                     u2213:
  5482  0547  0857               	movf	??___fladd+7,w
  5483  0548  1803               	skipnc
  5484  0549  0A57               	incf	??___fladd+7,w
  5485  054A  07D3               	addwf	??___fladd+3,f
  5486  054B  0853               	movf	??___fladd+3,w
  5487  054C  00CB               	movwf	___fladd@b+3
  5488  054D  0852               	movf	??___fladd+2,w
  5489  054E  00CA               	movwf	___fladd@b+2
  5490  054F  0851               	movf	??___fladd+1,w
  5491  0550  00C9               	movwf	___fladd@b+1
  5492  0551  0850               	movf	??___fladd,w
  5493  0552  00C8               	movwf	___fladd@b
  5494  0553                     l1880:
  5495  0553  3080               	movlw	128
  5496  0554  00D0               	movwf	??___fladd
  5497  0555  0850               	movf	??___fladd,w
  5498  0556  06D8               	xorwf	___fladd@signs,f
  5499  0557  09DB               	comf	___fladd@grs,f
  5500  0558  0ADB               	incf	___fladd@grs,f
  5501  0559                     l1882:
  5502  0559  085B               	movf	___fladd@grs,w
  5503  055A  1D03               	btfss	3,2
  5504  055B  2D5D               	goto	u2221
  5505  055C  2D5E               	goto	u2220
  5506  055D                     u2221:
  5507  055D  2D7B               	goto	l610
  5508  055E                     u2220:
  5509  055E                     l1884:
  5510  055E  3001               	movlw	1
  5511  055F  07C8               	addwf	___fladd@b,f
  5512  0560  3000               	movlw	0
  5513  0561  1803               	skipnc
  5514  0562  3001               	movlw	1
  5515  0563  07C9               	addwf	___fladd@b+1,f
  5516  0564  3000               	movlw	0
  5517  0565  1803               	skipnc
  5518  0566  3001               	movlw	1
  5519  0567  07CA               	addwf	___fladd@b+2,f
  5520  0568  3000               	movlw	0
  5521  0569  1803               	skipnc
  5522  056A  3001               	movlw	1
  5523  056B  07CB               	addwf	___fladd@b+3,f
  5524  056C  2D7B               	goto	l610
  5525  056D                     l1886:
  5526  056D  084C               	movf	___fladd@a,w
  5527  056E  02C8               	subwf	___fladd@b,f
  5528  056F  084D               	movf	___fladd@a+1,w
  5529  0570  1C03               	skipc
  5530  0571  0F4D               	incfsz	___fladd@a+1,w
  5531  0572  02C9               	subwf	___fladd@b+1,f
  5532  0573  084E               	movf	___fladd@a+2,w
  5533  0574  1C03               	skipc
  5534  0575  0F4E               	incfsz	___fladd@a+2,w
  5535  0576  02CA               	subwf	___fladd@b+2,f
  5536  0577  084F               	movf	___fladd@a+3,w
  5537  0578  1C03               	skipc
  5538  0579  0F4F               	incfsz	___fladd@a+3,w
  5539  057A  02CB               	subwf	___fladd@b+3,f
  5540  057B                     l610:
  5541  057B  084B               	movf	___fladd@b+3,w
  5542  057C  044A               	iorwf	___fladd@b+2,w
  5543  057D  0449               	iorwf	___fladd@b+1,w
  5544  057E  0448               	iorwf	___fladd@b,w
  5545  057F  1D03               	skipz
  5546  0580  2D82               	goto	u2231
  5547  0581  2D83               	goto	u2230
  5548  0582                     u2231:
  5549  0582  2DAF               	goto	l1908
  5550  0583                     u2230:
  5551  0583                     l1888:
  5552  0583  085B               	movf	___fladd@grs,w
  5553  0584  1D03               	btfss	3,2
  5554  0585  2D87               	goto	u2241
  5555  0586  2D88               	goto	u2240
  5556  0587                     u2241:
  5557  0587  2DAF               	goto	l1908
  5558  0588                     u2240:
  5559  0588                     l1890:
  5560  0588  3000               	movlw	0
  5561  0589  00CB               	movwf	?___fladd+3
  5562  058A  3000               	movlw	0
  5563  058B  00CA               	movwf	?___fladd+2
  5564  058C  3000               	movlw	0
  5565  058D  00C9               	movwf	?___fladd+1
  5566  058E  3000               	movlw	0
  5567  058F  00C8               	movwf	?___fladd
  5568  0590  2E2D               	goto	l602
  5569  0591                     l1894:
  5570  0591  3001               	movlw	1
  5571  0592  00D0               	movwf	??___fladd
  5572  0593                     u2255:
  5573  0593  1003               	clrc
  5574  0594  0DC8               	rlf	___fladd@b,f
  5575  0595  0DC9               	rlf	___fladd@b+1,f
  5576  0596  0DCA               	rlf	___fladd@b+2,f
  5577  0597  0DCB               	rlf	___fladd@b+3,f
  5578  0598  0BD0               	decfsz	??___fladd,f
  5579  0599  2D93               	goto	u2255
  5580  059A                     l1896:
  5581  059A  1FDB               	btfss	___fladd@grs,7
  5582  059B  2D9D               	goto	u2261
  5583  059C  2D9E               	goto	u2260
  5584  059D                     u2261:
  5585  059D  2D9F               	goto	l614
  5586  059E                     u2260:
  5587  059E                     l1898:
  5588  059E  1448               	bsf	___fladd@b,0
  5589  059F                     l614:
  5590  059F  1C5B               	btfss	___fladd@grs,0
  5591  05A0  2DA2               	goto	u2271
  5592  05A1  2DA3               	goto	u2270
  5593  05A2                     u2271:
  5594  05A2  2DA6               	goto	l1902
  5595  05A3                     u2270:
  5596  05A3                     l1900:
  5597  05A3  1403               	setc
  5598  05A4  0DDB               	rlf	___fladd@grs,f
  5599  05A5  2DA8               	goto	l1904
  5600  05A6                     l1902:
  5601  05A6  1003               	clrc
  5602  05A7  0DDB               	rlf	___fladd@grs,f
  5603  05A8                     l1904:
  5604  05A8  085A               	movf	___fladd@bexp,w
  5605  05A9  1903               	btfsc	3,2
  5606  05AA  2DAC               	goto	u2281
  5607  05AB  2DAD               	goto	u2280
  5608  05AC                     u2281:
  5609  05AC  2DAF               	goto	l1908
  5610  05AD                     u2280:
  5611  05AD                     l1906:
  5612  05AD  3001               	movlw	1
  5613  05AE  02DA               	subwf	___fladd@bexp,f
  5614  05AF                     l1908:
  5615  05AF  1FCA               	btfss	___fladd@b+2,7
  5616  05B0  2DB2               	goto	u2291
  5617  05B1  2DB3               	goto	u2290
  5618  05B2                     u2291:
  5619  05B2  2D91               	goto	l1894
  5620  05B3                     u2290:
  5621  05B3                     l1910:
  5622  05B3  01D9               	clrf	___fladd@aexp
  5623  05B4                     l1912:
  5624  05B4  1FDB               	btfss	___fladd@grs,7
  5625  05B5  2DB7               	goto	u2301
  5626  05B6  2DB8               	goto	u2300
  5627  05B7                     u2301:
  5628  05B7  2DC6               	goto	l1920
  5629  05B8                     u2300:
  5630  05B8                     l1914:
  5631  05B8  085B               	movf	___fladd@grs,w
  5632  05B9  397F               	andlw	127
  5633  05BA  1903               	btfsc	3,2
  5634  05BB  2DBD               	goto	u2311
  5635  05BC  2DBE               	goto	u2310
  5636  05BD                     u2311:
  5637  05BD  2DC1               	goto	l620
  5638  05BE                     u2310:
  5639  05BE                     l1916:
  5640  05BE  01D9               	clrf	___fladd@aexp
  5641  05BF  0AD9               	incf	___fladd@aexp,f
  5642  05C0  2DC6               	goto	l1920
  5643  05C1                     l620:
  5644  05C1  1C48               	btfss	___fladd@b,0
  5645  05C2  2DC4               	goto	u2321
  5646  05C3  2DC5               	goto	u2320
  5647  05C4                     u2321:
  5648  05C4  2DC6               	goto	l1920
  5649  05C5                     u2320:
  5650  05C5  2DBE               	goto	l1916
  5651  05C6                     l1920:
  5652  05C6  0859               	movf	___fladd@aexp,w
  5653  05C7  1903               	btfsc	3,2
  5654  05C8  2DCA               	goto	u2331
  5655  05C9  2DCB               	goto	u2330
  5656  05CA                     u2331:
  5657  05CA  2DFF               	goto	l623
  5658  05CB                     u2330:
  5659  05CB                     l1922:
  5660  05CB  3001               	movlw	1
  5661  05CC  07C8               	addwf	___fladd@b,f
  5662  05CD  3000               	movlw	0
  5663  05CE  1803               	skipnc
  5664  05CF  3001               	movlw	1
  5665  05D0  07C9               	addwf	___fladd@b+1,f
  5666  05D1  3000               	movlw	0
  5667  05D2  1803               	skipnc
  5668  05D3  3001               	movlw	1
  5669  05D4  07CA               	addwf	___fladd@b+2,f
  5670  05D5  3000               	movlw	0
  5671  05D6  1803               	skipnc
  5672  05D7  3001               	movlw	1
  5673  05D8  07CB               	addwf	___fladd@b+3,f
  5674  05D9                     l1924:
  5675  05D9  1C4B               	btfss	___fladd@b+3,0
  5676  05DA  2DDC               	goto	u2341
  5677  05DB  2DDD               	goto	u2340
  5678  05DC                     u2341:
  5679  05DC  2DFF               	goto	l623
  5680  05DD                     u2340:
  5681  05DD                     l1926:
  5682  05DD  0848               	movf	___fladd@b,w
  5683  05DE  00D0               	movwf	??___fladd
  5684  05DF  0849               	movf	___fladd@b+1,w
  5685  05E0  00D1               	movwf	??___fladd+1
  5686  05E1  084A               	movf	___fladd@b+2,w
  5687  05E2  00D2               	movwf	??___fladd+2
  5688  05E3  084B               	movf	___fladd@b+3,w
  5689  05E4  00D3               	movwf	??___fladd+3
  5690  05E5  3001               	movlw	1
  5691  05E6  00D4               	movwf	??___fladd+4
  5692  05E7                     u2355:
  5693  05E7  0D53               	rlf	??___fladd+3,w
  5694  05E8  0CD3               	rrf	??___fladd+3,f
  5695  05E9  0CD2               	rrf	??___fladd+2,f
  5696  05EA  0CD1               	rrf	??___fladd+1,f
  5697  05EB  0CD0               	rrf	??___fladd,f
  5698  05EC                     u2350:
  5699  05EC  0BD4               	decfsz	??___fladd+4,f
  5700  05ED  2DE7               	goto	u2355
  5701  05EE  0853               	movf	??___fladd+3,w
  5702  05EF  00CB               	movwf	___fladd@b+3
  5703  05F0  0852               	movf	??___fladd+2,w
  5704  05F1  00CA               	movwf	___fladd@b+2
  5705  05F2  0851               	movf	??___fladd+1,w
  5706  05F3  00C9               	movwf	___fladd@b+1
  5707  05F4  0850               	movf	??___fladd,w
  5708  05F5  00C8               	movwf	___fladd@b
  5709  05F6  0A5A               	incf	___fladd@bexp,w
  5710  05F7  1903               	btfsc	3,2
  5711  05F8  2DFA               	goto	u2361
  5712  05F9  2DFB               	goto	u2360
  5713  05FA                     u2361:
  5714  05FA  2DFF               	goto	l623
  5715  05FB                     u2360:
  5716  05FB                     l1928:
  5717  05FB  3001               	movlw	1
  5718  05FC  00D0               	movwf	??___fladd
  5719  05FD  0850               	movf	??___fladd,w
  5720  05FE  07DA               	addwf	___fladd@bexp,f
  5721  05FF                     l623:
  5722  05FF  0A5A               	incf	___fladd@bexp,w
  5723  0600  1903               	btfsc	3,2
  5724  0601  2E03               	goto	u2371
  5725  0602  2E04               	goto	u2370
  5726  0603                     u2371:
  5727  0603  2E09               	goto	l1932
  5728  0604                     u2370:
  5729  0604                     l1930:
  5730  0604  085A               	movf	___fladd@bexp,w
  5731  0605  1D03               	btfss	3,2
  5732  0606  2E08               	goto	u2381
  5733  0607  2E09               	goto	u2380
  5734  0608                     u2381:
  5735  0608  2E17               	goto	l1938
  5736  0609                     u2380:
  5737  0609                     l1932:
  5738  0609  3000               	movlw	0
  5739  060A  00CB               	movwf	___fladd@b+3
  5740  060B  3000               	movlw	0
  5741  060C  00CA               	movwf	___fladd@b+2
  5742  060D  3000               	movlw	0
  5743  060E  00C9               	movwf	___fladd@b+1
  5744  060F  3000               	movlw	0
  5745  0610  00C8               	movwf	___fladd@b
  5746  0611                     l1934:
  5747  0611  085A               	movf	___fladd@bexp,w
  5748  0612  1D03               	btfss	3,2
  5749  0613  2E15               	goto	u2391
  5750  0614  2E16               	goto	u2390
  5751  0615                     u2391:
  5752  0615  2E17               	goto	l1938
  5753  0616                     u2390:
  5754  0616                     l1936:
  5755  0616  01D8               	clrf	___fladd@signs
  5756  0617                     l1938:
  5757  0617  1C5A               	btfss	___fladd@bexp,0
  5758  0618  2E1A               	goto	u2401
  5759  0619  2E1B               	goto	u2400
  5760  061A                     u2401:
  5761  061A  2E1D               	goto	l1942
  5762  061B                     u2400:
  5763  061B                     l1940:
  5764  061B  17CA               	bsf	___fladd@b+2,7
  5765  061C  2E21               	goto	l631
  5766  061D                     l1942:
  5767  061D  307F               	movlw	127
  5768  061E  00D0               	movwf	??___fladd
  5769  061F  0850               	movf	??___fladd,w
  5770  0620  05CA               	andwf	___fladd@b+2,f
  5771  0621                     l631:
  5772  0621  085A               	movf	___fladd@bexp,w
  5773  0622  00D0               	movwf	??___fladd
  5774  0623  1003               	clrc
  5775  0624  0C50               	rrf	??___fladd,w
  5776  0625  00D1               	movwf	??___fladd+1
  5777  0626  0851               	movf	??___fladd+1,w
  5778  0627  00CB               	movwf	___fladd@b+3
  5779  0628                     l1944:
  5780  0628  1FD8               	btfss	___fladd@signs,7
  5781  0629  2E2B               	goto	u2411
  5782  062A  2E2C               	goto	u2410
  5783  062B                     u2411:
  5784  062B  2E2D               	goto	l632
  5785  062C                     u2410:
  5786  062C                     l1946:
  5787  062C  17CB               	bsf	___fladd@b+3,7
  5788  062D                     l632:
  5789  062D                     l602:
  5790  062D  0008               	return
  5791  062E                     __end_of___fladd:
  5792                           
  5793                           	psect	text19
  5794  0BAD                     __ptext19:	
  5795 ;; *************** function _isr *****************
  5796 ;; Defined at:
  5797 ;;		line 13 in file "Monitor_interruption.c"
  5798 ;; Parameters:    Size  Location     Type
  5799 ;;		None
  5800 ;; Auto vars:     Size  Location     Type
  5801 ;;		None
  5802 ;; Return value:  Size  Location     Type
  5803 ;;                  1    wreg      void 
  5804 ;; Registers used:
  5805 ;;		wreg, status,2, status,0, pclath, cstack
  5806 ;; Tracked objects:
  5807 ;;		On entry : 0/0
  5808 ;;		On exit  : 0/0
  5809 ;;		Unchanged: 0/0
  5810 ;; Data sizes:     COMMON   BANK0   BANK1   BANK3   BANK2
  5811 ;;      Params:         0       0       0       0       0
  5812 ;;      Locals:         0       0       0       0       0
  5813 ;;      Temps:          2       0       0       0       0
  5814 ;;      Totals:         2       0       0       0       0
  5815 ;;Total ram usage:        2 bytes
  5816 ;; Hardware stack levels used: 1
  5817 ;; Hardware stack levels required when called: 1
  5818 ;; This function calls:
  5819 ;;		_adc_read
  5820 ;;		_t0_init_cont
  5821 ;; This function is called by:
  5822 ;;		Interrupt level 1
  5823 ;; This function uses a non-reentrant model
  5824 ;;
  5825                           
  5826                           
  5827                           ;psect for function _isr
  5828  0BAD                     _isr:
  5829  0BAD                     i1l1490:
  5830                           
  5831                           ;Monitor_interruption.c: 15:     if( INTCONbits.T0IF )
  5832  0BAD  1D0B               	btfss	11,2	;volatile
  5833  0BAE  2BB0               	goto	u150_21
  5834  0BAF  2BB1               	goto	u150_20
  5835  0BB0                     u150_21:
  5836  0BB0  2BB7               	goto	i1l1496
  5837  0BB1                     u150_20:
  5838  0BB1                     i1l1492:
  5839                           
  5840                           ;Monitor_interruption.c: 16:     {;Monitor_interruption.c: 17:         INTCONbits.T0IF =
      +                           0;
  5841  0BB1  110B               	bcf	11,2	;volatile
  5842  0BB2                     i1l1494:
  5843                           
  5844                           ;Monitor_interruption.c: 18:         t0_init_cont();
  5845  0BB2  120A  118A  27EE  120A  158A  	fcall	_t0_init_cont
  5846  0BB7                     i1l1496:
  5847                           
  5848                           ;Monitor_interruption.c: 22:     if( PIR1bits.ADIF )
  5849  0BB7  1283               	bcf	3,5	;RP0=0, select bank0
  5850  0BB8  1303               	bcf	3,6	;RP1=0, select bank0
  5851  0BB9  1F0C               	btfss	12,6	;volatile
  5852  0BBA  2BBC               	goto	u151_21
  5853  0BBB  2BBD               	goto	u151_20
  5854  0BBC                     u151_21:
  5855  0BBC  2BC3               	goto	i1l42
  5856  0BBD                     u151_20:
  5857  0BBD                     i1l1498:
  5858                           
  5859                           ;Monitor_interruption.c: 23:     {;Monitor_interruption.c: 24:         PIR1bits.ADIF = 0
      +                          ;
  5860  0BBD  130C               	bcf	12,6	;volatile
  5861  0BBE                     i1l1500:
  5862                           
  5863                           ;Monitor_interruption.c: 25:         adc_read();
  5864  0BBE  120A  158A  23CA  120A  158A  	fcall	_adc_read
  5865  0BC3                     i1l42:
  5866  0BC3  087B               	movf	??_isr+1,w
  5867  0BC4  008A               	movwf	10
  5868  0BC5  0E7A               	swapf	??_isr,w
  5869  0BC6  0083               	movwf	3
  5870  0BC7  0EFE               	swapf	btemp,f
  5871  0BC8  0E7E               	swapf	btemp,w
  5872  0BC9  0009               	retfie
  5873  0BCA                     __end_of_isr:
  5874                           
  5875                           	psect	intentry
  5876  0004                     __pintentry:	
  5877                           ;incstack = 0
  5878                           ; Regs used in _isr: [wreg+status,2+status,0+pclath+cstack]
  5879                           
  5880  0004                     interrupt_function:
  5881  007E                     saved_w	set	btemp
  5882  0004  00FE               	movwf	btemp
  5883  0005  0E03               	swapf	3,w
  5884  0006  00FA               	movwf	??_isr
  5885  0007  080A               	movf	10,w
  5886  0008  00FB               	movwf	??_isr+1
  5887  0009  120A  158A  2BAD   	ljmp	_isr
  5888                           
  5889                           	psect	text20
  5890  07EE                     __ptext20:	
  5891 ;; *************** function _t0_init_cont *****************
  5892 ;; Defined at:
  5893 ;;		line 29 in file "timers.c"
  5894 ;; Parameters:    Size  Location     Type
  5895 ;;		None
  5896 ;; Auto vars:     Size  Location     Type
  5897 ;;		None
  5898 ;; Return value:  Size  Location     Type
  5899 ;;                  1    wreg      void 
  5900 ;; Registers used:
  5901 ;;		wreg, status,2, status,0
  5902 ;; Tracked objects:
  5903 ;;		On entry : 0/0
  5904 ;;		On exit  : 0/0
  5905 ;;		Unchanged: 0/0
  5906 ;; Data sizes:     COMMON   BANK0   BANK1   BANK3   BANK2
  5907 ;;      Params:         0       0       0       0       0
  5908 ;;      Locals:         0       0       0       0       0
  5909 ;;      Temps:          0       0       0       0       0
  5910 ;;      Totals:         0       0       0       0       0
  5911 ;;Total ram usage:        0 bytes
  5912 ;; Hardware stack levels used: 1
  5913 ;; This function calls:
  5914 ;;		Nothing
  5915 ;; This function is called by:
  5916 ;;		_isr
  5917 ;; This function uses a non-reentrant model
  5918 ;;
  5919                           
  5920                           
  5921                           ;psect for function _t0_init_cont
  5922  07EE                     _t0_init_cont:
  5923  07EE                     i1l1402:	
  5924                           ;incstack = 0
  5925                           ; Regs used in _t0_init_cont: [wreg+status,2+status,0]
  5926                           
  5927                           
  5928                           ;timers.c: 31:     TMR0 = (256-250);
  5929  07EE  3006               	movlw	6
  5930  07EF  1283               	bcf	3,5	;RP0=0, select bank0
  5931  07F0  1303               	bcf	3,6	;RP1=0, select bank0
  5932  07F1  0081               	movwf	1	;volatile
  5933  07F2                     i1l1404:
  5934                           
  5935                           ;timers.c: 32:     if(timer0_value) -- timer0_value;
  5936  07F2  0870               	movf	_timer0_value,w
  5937  07F3  0471               	iorwf	_timer0_value+1,w
  5938  07F4  1903               	btfsc	3,2
  5939  07F5  2FF7               	goto	u139_21
  5940  07F6  2FF8               	goto	u139_20
  5941  07F7                     u139_21:
  5942  07F7  2FFE               	goto	i1l152
  5943  07F8                     u139_20:
  5944  07F8                     i1l1406:
  5945  07F8  3001               	movlw	1
  5946  07F9  02F0               	subwf	_timer0_value,f
  5947  07FA  3000               	movlw	0
  5948  07FB  1C03               	skipc
  5949  07FC  03F1               	decf	_timer0_value+1,f
  5950  07FD  02F1               	subwf	_timer0_value+1,f
  5951  07FE                     i1l152:
  5952  07FE  0008               	return
  5953  07FF                     __end_of_t0_init_cont:
  5954                           
  5955                           	psect	text21
  5956  0BCA                     __ptext21:	
  5957 ;; *************** function _adc_read *****************
  5958 ;; Defined at:
  5959 ;;		line 37 in file "Analog_to_Digital.c"
  5960 ;; Parameters:    Size  Location     Type
  5961 ;;		None
  5962 ;; Auto vars:     Size  Location     Type
  5963 ;;		None
  5964 ;; Return value:  Size  Location     Type
  5965 ;;                  1    wreg      void 
  5966 ;; Registers used:
  5967 ;;		wreg, status,2, status,0
  5968 ;; Tracked objects:
  5969 ;;		On entry : 0/0
  5970 ;;		On exit  : 0/0
  5971 ;;		Unchanged: 0/0
  5972 ;; Data sizes:     COMMON   BANK0   BANK1   BANK3   BANK2
  5973 ;;      Params:         0       0       0       0       0
  5974 ;;      Locals:         0       0       0       0       0
  5975 ;;      Temps:          4       0       0       0       0
  5976 ;;      Totals:         4       0       0       0       0
  5977 ;;Total ram usage:        4 bytes
  5978 ;; Hardware stack levels used: 1
  5979 ;; This function calls:
  5980 ;;		Nothing
  5981 ;; This function is called by:
  5982 ;;		_isr
  5983 ;; This function uses a non-reentrant model
  5984 ;;
  5985                           
  5986                           
  5987                           ;psect for function _adc_read
  5988  0BCA                     _adc_read:
  5989  0BCA                     i1l1396:	
  5990                           ;incstack = 0
  5991                           ; Regs used in _adc_read: [wreg+status,2+status,0]
  5992                           
  5993                           
  5994                           ;Analog_to_Digital.c: 39:     read_value = ADRESH;
  5995  0BCA  1283               	bcf	3,5	;RP0=0, select bank0
  5996  0BCB  1303               	bcf	3,6	;RP1=0, select bank0
  5997  0BCC  081E               	movf	30,w	;volatile
  5998  0BCD  00F6               	movwf	??_adc_read
  5999  0BCE  01F7               	clrf	??_adc_read+1
  6000  0BCF  0876               	movf	??_adc_read,w
  6001  0BD0  00F4               	movwf	_read_value
  6002  0BD1  0877               	movf	??_adc_read+1,w
  6003  0BD2  00F5               	movwf	_read_value+1
  6004  0BD3                     i1l1398:
  6005                           
  6006                           ;Analog_to_Digital.c: 40:     read_value = (read_value<<8) + ADRESL ;
  6007  0BD3  0874               	movf	_read_value,w
  6008  0BD4  00F7               	movwf	??_adc_read+1
  6009  0BD5  01F6               	clrf	??_adc_read
  6010  0BD6  1683               	bsf	3,5	;RP0=1, select bank1
  6011  0BD7  1303               	bcf	3,6	;RP1=0, select bank1
  6012  0BD8  081E               	movf	30,w	;volatile
  6013  0BD9  0776               	addwf	??_adc_read,w
  6014  0BDA  00F8               	movwf	??_adc_read+2
  6015  0BDB  3000               	movlw	0
  6016  0BDC  1803               	skipnc
  6017  0BDD  3001               	movlw	1
  6018  0BDE  0777               	addwf	??_adc_read+1,w
  6019  0BDF  00F9               	movwf	??_adc_read+3
  6020  0BE0  0878               	movf	??_adc_read+2,w
  6021  0BE1  00F4               	movwf	_read_value
  6022  0BE2  0879               	movf	??_adc_read+3,w
  6023  0BE3  00F5               	movwf	_read_value+1
  6024  0BE4                     i1l1400:
  6025                           
  6026                           ;Analog_to_Digital.c: 41:     ADCON0bits.GO = 1;
  6027  0BE4  1283               	bcf	3,5	;RP0=0, select bank0
  6028  0BE5  1303               	bcf	3,6	;RP1=0, select bank0
  6029  0BE6  149F               	bsf	31,1	;volatile
  6030  0BE7                     i1l24:
  6031  0BE7  0008               	return
  6032  0BE8                     __end_of_adc_read:
  6033  000C                     
  6034                           	psect	functab
  6035  002D                     __pfunctab:
  6036  002D                     __fptable:
  6037  002D                     fptable:
  6038  002D  00FF               	movwf	(btemp+1)& (0+127)
  6039  002E  3000               	movlw	high fptable
  6040  002F  008A               	movwf	10
  6041  0030  087F               	movf	(btemp+1)& (0+127),w
  6042  0031  0782               	addwf	2,f
  6043  0032                     fpbase:
  6044  0032  2832               	goto	fpbase	; Call via a null pointer and you will get stuck here.
  6045  0033                     fp__Fahrenheit_value:
  6046  0033  120A  158A  2CC6   	ljmp	_Fahrenheit_value
  6047  0036                     fp__LCD_Texto:
  6048  0036  120A  158A  2C90   	ljmp	_LCD_Texto
  6049  0039                     fp__LCD_init:
  6050  0039  120A  158A  2C32   	ljmp	_LCD_init
  6051  003C                     fp__LCD_num:
  6052  003C  120A  118A  2E2E   	ljmp	_LCD_num
  6053  003F                     fp__celsius_value:
  6054  003F  120A  158A  2D7A   	ljmp	_celsius_value
  6055  0042                     fp__kelvin_value:
  6056  0042  120A  158A  2B67   	ljmp	_kelvin_value
  6057  0045                     __end_of__fptable:
  6058  007E                     btemp	set	126	;btemp
  6059  007E                     wtemp0	set	126
  6060                           
  6061                           	psect	config
  6062                           
  6063                           ;Config register CONFIG1 @ 0x2007
  6064                           ;	Oscillator Selection bits
  6065                           ;	FOSC = INTRC_NOCLKOUT, INTOSCIO oscillator: I/O function on RA6/OSC2/CLKOUT pin, I/O f
      +                          unction on RA7/OSC1/CLKIN
  6066                           ;	Watchdog Timer Enable bit
  6067                           ;	WDTE = OFF, WDT disabled and can be enabled by SWDTEN bit of the WDTCON register
  6068                           ;	Power-up Timer Enable bit
  6069                           ;	PWRTE = OFF, PWRT disabled
  6070                           ;	RE3/MCLR pin function select bit
  6071                           ;	MCLRE = OFF, RE3/MCLR pin function is digital input, MCLR internally tied to VDD
  6072                           ;	Code Protection bit
  6073                           ;	CP = OFF, Program memory code protection is disabled
  6074                           ;	Data Code Protection bit
  6075                           ;	CPD = OFF, Data memory code protection is disabled
  6076                           ;	Brown Out Reset Selection bits
  6077                           ;	BOREN = OFF, BOR disabled
  6078                           ;	Internal External Switchover bit
  6079                           ;	IESO = OFF, Internal/External Switchover mode is disabled
  6080                           ;	Fail-Safe Clock Monitor Enabled bit
  6081                           ;	FCMEN = OFF, Fail-Safe Clock Monitor is disabled
  6082                           ;	Low Voltage Programming Enable bit
  6083                           ;	LVP = OFF, RB3 pin has digital I/O, HV on MCLR must be used for programming
  6084                           ;	In-Circuit Debugger Mode bit
  6085                           ;	DEBUG = 0x1, unprogrammed default
  6086  2007                     	org	8199
  6087  2007  20D4               	dw	8404
  6088                           
  6089                           ;Config register CONFIG2 @ 0x2008
  6090                           ;	Brown-out Reset Selection bit
  6091                           ;	BOR4V = BOR40V, Brown-out Reset set to 4.0V
  6092                           ;	Flash Program Memory Self Write Enable bits
  6093                           ;	WRT = OFF, Write protection off
  6094  2008                     	org	8200
  6095  2008  3FFF               	dw	16383

Data Sizes:
    Strings     17
    Constant    0
    Data        15
    BSS         10
    Persistent  0
    Stack       0

Auto Spaces:
    Space          Size  Autos    Used
    COMMON           14      6      12
    BANK0            80     80      80
    BANK1            80      9      28
    BANK3            96      0       0
    BANK2            96      0       0

Pointer List with Targets:

    S448$1$0	PTR const unsigned char  size(1) Largest target is 0

    S448$2$2	PTR const unsigned char  size(1) Largest target is 17
		 -> STR_1(CODE[17]), 

    S483$Fahrenheit	PTR FTN()unsigned int  size(1) Largest target is 2
		 -> Fahrenheit_value(), 

    value.Fahrenheit	PTR FTN()unsigned int  size(1) Largest target is 2
		 -> Fahrenheit_value(), 

    S483$kelvin	PTR FTN()unsigned int  size(1) Largest target is 2
		 -> kelvin_value(), 

    value.kelvin	PTR FTN()unsigned int  size(1) Largest target is 2
		 -> kelvin_value(), 

    S483$celsius	PTR FTN()unsigned int  size(1) Largest target is 2
		 -> celsius_value(), 

    value.celsius	PTR FTN()unsigned int  size(1) Largest target is 2
		 -> celsius_value(), 

    S448$B1	PTR FTN()unsigned char  size(1) Largest target is 1
		 -> lcd_b1(), 

    print.B1	PTR FTN()unsigned char  size(1) Largest target is 1
		 -> lcd_b1(), 

    S448$B0	PTR FTN()unsigned char  size(1) Largest target is 1
		 -> lcd_b0(), 

    print.B0	PTR FTN()unsigned char  size(1) Largest target is 1
		 -> lcd_b0(), 

    S448$clr	PTR FTN()void  size(1) Largest target is 1
		 -> dispLCD_clr(), 

    print.clr	PTR FTN()void  size(1) Largest target is 1
		 -> dispLCD_clr(), 

    S448$number	PTR FTN(unsigned char ,unsigned char ,int ,unsigned char ,)void  size(1) Largest target is 1
		 -> LCD_num(), 

    print.number	PTR FTN(unsigned char ,unsigned char ,int ,unsigned char ,)void  size(1) Largest target is 1
		 -> LCD_num(), 

    S448$str_position	PTR FTN(unsigned char ,unsigned char ,PTR const unsigned char ,)void  size(1) Largest target is 1
		 -> LCD_Texto(), 

    print.str_position	PTR FTN(unsigned char ,unsigned char ,PTR const unsigned char ,)void  size(1) Largest target is 1
		 -> LCD_Texto(), 

    S448$string	PTR FTN(PTR const unsigned char ,)void  size(1) Largest target is 1
		 -> LCD_str(), 

    print.string	PTR FTN(PTR const unsigned char ,)void  size(1) Largest target is 1
		 -> LCD_str(), 

    S448$init	PTR FTN()void  size(1) Largest target is 1
		 -> LCD_init(), 

    print.init	PTR FTN()void  size(1) Largest target is 1
		 -> LCD_init(), 

    S426$Pause	PTR FTN()void  size(1) Largest target is 1
		 -> Pause_timer0(), 

    TM0.Pause	PTR FTN()void  size(1) Largest target is 1
		 -> Pause_timer0(), 

    S426$Play	PTR FTN()void  size(1) Largest target is 1
		 -> Play_timer0(), 

    TM0.Play	PTR FTN()void  size(1) Largest target is 1
		 -> Play_timer0(), 

    S426$status	PTR FTN()unsigned int  size(1) Largest target is 2
		 -> status_timer0(), 

    TM0.status	PTR FTN()unsigned int  size(1) Largest target is 2
		 -> status_timer0(), 

    S426$get	PTR FTN(unsigned int ,)void  size(1) Largest target is 1
		 -> timer0_get(), 

    TM0.get	PTR FTN(unsigned int ,)void  size(1) Largest target is 1
		 -> timer0_get(), 

    S426$init	PTR FTN()void  size(1) Largest target is 1
		 -> timer0_init(), 

    TM0.init	PTR FTN()void  size(1) Largest target is 1
		 -> timer0_init(), 

    LCD_Texto@str	PTR const unsigned char  size(1) Largest target is 17
		 -> STR_1(CODE[17]), 


Critical Paths under _main in COMMON

    None.

Critical Paths under _isr in COMMON

    _isr->_adc_read

Critical Paths under _main in BANK0

    _main->_LCD_num
    _celsius_value->___fltol
    _LCD_num->_Fahrenheit_value
    _LCD_num->_celsius_value
    _LCD_init->_dispLCD_instReg
    _LCD_Texto->_dispLCD_lincol
    _dispLCD_lincol->_dispLCD_instReg
    _Fahrenheit_value->___fltol
    ___fltol->___fladd
    ___flmul->___xxtofl
    ___fladd->___flmul

Critical Paths under _isr in BANK0

    None.

Critical Paths under _main in BANK1

    _main->_LCD_num

Critical Paths under _isr in BANK1

    None.

Critical Paths under _main in BANK3

    None.

Critical Paths under _isr in BANK3

    None.

Critical Paths under _main in BANK2

    None.

Critical Paths under _isr in BANK2

    None.

Call Graph Tables:

 ---------------------------------------------------------------------------------
 (Depth) Function   	        Calls       Base Space   Used Autos Params    Refs
 ---------------------------------------------------------------------------------
 (0) _main                                                 2     2      0   18982
                                              7 BANK1      2     2      0
                   _Fahrenheit_value *
                          _LCD_Texto *
                           _LCD_init *
                            _LCD_num *
                           _adc_init
                      _celsius_value *
                       _kelvin_value *
 ---------------------------------------------------------------------------------
 (1) _kelvin_value                                         4     2      2      34
                                              0 BANK0      4     2      2
 ---------------------------------------------------------------------------------
 (1) _celsius_value                                        4     2      2    6836
                                             71 BANK0      4     2      2
                            ___fladd
                            ___flmul
                            ___fltol
                           ___xxtofl
                          _adc_value
 ---------------------------------------------------------------------------------
 (2) _adc_value                                            2     0      2       0
                                              0 BANK0      2     0      2
 ---------------------------------------------------------------------------------
 (1) _adc_init                                             0     0      0       0
 ---------------------------------------------------------------------------------
 (1) _LCD_num                                             12     7      5    3937
                                             75 BANK0      5     0      5
                                              0 BANK1      7     7      0
                   _Fahrenheit_value (ARG) *
                            ___awdiv
                            ___awmod
                      _celsius_value (ARG) *
                    _dispLCD_dataReg
                     _dispLCD_lincol
                       _kelvin_value (ARG) *
 ---------------------------------------------------------------------------------
 (2) ___awmod                                              7     3      4     613
                                              0 BANK0      7     3      4
 ---------------------------------------------------------------------------------
 (2) ___awdiv                                              9     5      4    1165
                                              0 BANK0      9     5      4
 ---------------------------------------------------------------------------------
 (1) _LCD_init                                             0     0      0     248
                    _dispLCD_instReg
 ---------------------------------------------------------------------------------
 (1) _LCD_Texto                                            5     2      3    1091
                                              6 BANK0      5     2      3
                    _dispLCD_dataReg
                     _dispLCD_lincol
 ---------------------------------------------------------------------------------
 (2) _dispLCD_lincol                                       3     2      1     670
                                              3 BANK0      3     2      1
                    _dispLCD_instReg
 ---------------------------------------------------------------------------------
 (3) _dispLCD_instReg                                      3     3      0     248
                                              0 BANK0      3     3      0
 ---------------------------------------------------------------------------------
 (2) _dispLCD_dataReg                                      2     2      0      62
                                              0 BANK0      2     2      0
 ---------------------------------------------------------------------------------
 (1) _Fahrenheit_value                                     4     2      2    6836
                                             71 BANK0      4     2      2
                            ___fladd
                            ___flmul
                            ___fltol
                           ___xxtofl
 ---------------------------------------------------------------------------------
 (2) ___xxtofl                                            14    10      4     474
                                              0 BANK0     14    10      4
 ---------------------------------------------------------------------------------
 (2) ___fltol                                             11     7      4     381
                                             60 BANK0     11     7      4
                            ___fladd (ARG)
                            ___flmul (ARG)
                           ___xxtofl (ARG)
 ---------------------------------------------------------------------------------
 (2) ___flmul                                             26    18      8    3533
                                             14 BANK0     26    18      8
                          __Umul8_16
                           ___xxtofl (ARG)
 ---------------------------------------------------------------------------------
 (3) __Umul8_16                                            9     7      2     980
                                              0 BANK0      9     7      2
 ---------------------------------------------------------------------------------
 (2) ___fladd                                             20    12      8    2414
                                             40 BANK0     20    12      8
                            ___flmul (ARG)
                           ___xxtofl (ARG)
 ---------------------------------------------------------------------------------
 Estimated maximum stack depth 3
 ---------------------------------------------------------------------------------
 (Depth) Function   	        Calls       Base Space   Used Autos Params    Refs
 ---------------------------------------------------------------------------------
 (4) _isr                                                  2     2      0       0
                                              4 COMMON     2     2      0
                           _adc_read
                       _t0_init_cont
 ---------------------------------------------------------------------------------
 (5) _t0_init_cont                                         0     0      0       0
 ---------------------------------------------------------------------------------
 (5) _adc_read                                             4     4      0       0
                                              0 COMMON     4     4      0
 ---------------------------------------------------------------------------------
 Estimated maximum stack depth 5
 ---------------------------------------------------------------------------------

 Call Graph Graphs:

 _main (ROOT)
   _Fahrenheit_value *
     ___fladd
       ___flmul (ARG)
         __Umul8_16
         ___xxtofl (ARG)
       ___xxtofl (ARG)
     ___flmul
     ___fltol
       ___fladd (ARG)
       ___flmul (ARG)
       ___xxtofl (ARG)
     ___xxtofl
   _LCD_Texto *
     _dispLCD_dataReg
     _dispLCD_lincol
       _dispLCD_instReg
   _LCD_init *
     _dispLCD_instReg
   _LCD_num *
     _Fahrenheit_value (ARG) *
     ___awdiv (ARG) *
     ___awmod (ARG) *
     _celsius_value (ARG) *
       ___fladd
       ___flmul
       ___fltol
       ___xxtofl
       _adc_value
     _dispLCD_dataReg (ARG) *
     _dispLCD_lincol (ARG) *
     _kelvin_value (ARG) *
   _adc_init *
   _celsius_value *
   _kelvin_value *

 _isr (ROOT)
   _adc_read
   _t0_init_cont

 Address spaces:
Name               Size   Autos  Total    Cost      Usage
BANK3               60      0       0       9        0.0%
BITBANK3            60      0       0       8        0.0%
SFR3                 0      0       0       4        0.0%
BITSFR3              0      0       0       4        0.0%
BANK2               60      0       0      11        0.0%
BITBANK2            60      0       0      10        0.0%
SFR2                 0      0       0       5        0.0%
BITSFR2              0      0       0       5        0.0%
BANK1               50      9      1C       7       35.0%
BITBANK1            50      0       0       6        0.0%
SFR1                 0      0       0       2        0.0%
BITSFR1              0      0       0       2        0.0%
BANK0               50     50      50       5      100.0%
BITBANK0            50      0       0       4        0.0%
SFR0                 0      0       0       1        0.0%
BITSFR0              0      0       0       1        0.0%
COMMON               E      6       C       1       85.7%
BITCOMMON            E      0       0       0        0.0%
CODE                 0      0       0       0        0.0%
DATA                 0      0      78      12        0.0%
ABS                  0      0      78       3        0.0%
NULL                 0      0       0       0        0.0%
STACK                0      0       0       2        0.0%
EEDATA             100      0       0       0        0.0%


Microchip Technology PIC Macro Assembler V2.32 build 20210201212658 
Symbol Table                                                                                   Sat Jul 03 23:46:51 2021

                               pc 0002                                l21 0C08                                l27 0B66  
                              l52 0B75                                l55 0D1E                                l49 0DDF  
                              l90 0C8F                                l93 0BAC                                l87 0F43  
                              l96 0C5E                      ___awdiv@sign 0026           __end_of_dispLCD_dataReg 0C90  
                              fsr 0004               __Umul8_16@word_mpld 0026                               l124 06EA  
                             l109 0CC5                               l126 0751                               l610 057B  
                             l602 062D                               l620 05C1                               l614 059F  
                             l462 0D79                               l631 0621                               l623 05FF  
                             l632 062D                               l704 0C1F                               l449 0E48  
                             l706 0C31                               l482 0EC4                               l731 0FFF  
                             l492 0EC4                               l742 0FC9                               l743 0FD5  
                             l735 0FAD                               l593 04B0                               l489 0EAF  
                             l729 0F68                               l595 0487                               l691 0311  
                             l589 0409                               l685 03A5                               l697 0399  
                             _TM0 00A7                               _isr 0BAD                               fsr0 0004  
                             indf 0000           __end_of_dispLCD_instReg 0F44                      ___awmod@sign 0026  
                    ___flmul@aexp 003C                      ___flmul@bexp 0041                      ___flmul@sign 003B  
                    ___flmul@temp 0046                      ___flmul@prod 0042                      ___fltol@exp1 0066  
                 __end_of_LCD_num 0752                              l2100 0F79                              l2110 0FA4  
                            l2102 0F7E                              l2120 0FD7                              l2112 0FB4  
                            l2104 0F8B                              l2122 0FED                              l2114 0FBF  
                            l2106 0F92                              l2300 0C15                              l2124 0FF2  
                            l2116 0FC3                              l2108 0F96                              l2302 0C19  
                            l2126 0FF6                              l2118 0FCD                              l2310 0B60  
                            l2304 0C28                              l2128 0FF7                              l2320 0C71  
                            l2400 0D4E                              l2306 0C2D                              l2090 0F4C  
                            l2330 0C8C                              l2322 0C78                              l2314 0C62  
                            l2410 0D70                              l2402 0D58                              l2500 02C6  
                            l2420 0052                              l2092 0F50                              l2324 0C7B  
                            l2316 0C63                              l2260 0EDC                              l2332 0B9B  
                            l2340 0DEC                              l2412 0D75                              l2404 0D5E  
                            l2510 02EB                              l2502 02D4                              l2430 0069  
                            l2422 0056                              l2094 0F60                              l2326 0C7C  
                            l2318 0C70                              l2270 0F00                              l2262 0EE2  
                            l2254 0EC8                              l2350 0DFD                              l2342 0DEE  
                            l2334 0DE0                              l2406 0D65                              l1800 0413  
                            l2520 030E                              l2504 02DD                              l2512 02F1  
                            l2440 0082                              l2432 006B                              l2424 0057  
                            l2416 0045                              l1720 0E56                              l2096 0F70  
                            l2088 0F47                              l2328 0C84                              l2272 0F01  
                            l2280 0F19                              l2264 0EED                              l2256 0EC9  
                            l2600 0C45                              l2360 0E15                              l2352 0E03  
                            l2344 0DF2                              l2336 0DE3                              l2408 0D6B  
                            l1810 0427                              l1802 0417                              l2530 032D  
                            l2514 02F5                              l2506 02E1                              l2450 0097  
                            l2442 0083                              l2434 0073                              l2426 005C  
                            l2418 004C                              l1730 0E7D                              l2290 0F2E  
                            l2282 0F1A                              l2274 0F0E                              l2266 0EF4  
                            l2258 0ED6                              l2610 0C90                              l2602 0C46  
                            l2362 0E26                              l2354 0E06                              l2370 0E3A  
                            l2346 0DF7                              l2338 0DE7                              l1900 05A3  
                            l1820 043B                              l1812 042B                              l1804 041B  
                            l2540 0373                              l2532 0346                              l2524 0316  
                            l2516 02F6                              l2508 02E2                              l2460 00B2  
                            l2452 009F                              l2444 0088                              l2436 0078  
                            l2428 0061                              l1740 0E8B                              l1732 0E7F  
                            l1724 0E5F                              l2292 0F39                              l2284 0F22  
                            l2276 0F0F                              l2268 0EF7                              l2620 0CB7  
                            l2612 0C96                              l2604 0C4C                              l2372 0E3F  
                            l2364 0E2C                              l2356 0E0D                              l2348 0DFB  
                            l2380 0D22                              l1902 05A6                              l1910 05B3  
                            l1830 044F                              l1822 043F                              l1814 042F  
                            l1806 041F                              l2550 0392                              l2542 037D  
                            l2526 031B                              l2534 034C                              l2518 02FA  
                            l2470 0134                              l2462 00C2                              l2454 00A4  
                            l2446 008D                              l2438 007E                              l1750 0EB4  
                            l1734 0E83                              l1742 0E9D                              l1726 0E74  
                            l1718 0E49                              l2294 0F40                              l2286 0F23  
                            l2278 0F16                              l2614 0CA1                              l2606 0C52  
                            l2374 0E44                              l2366 0E2D                              l2358 0E11  
                            l2390 0D36                              l2382 0D26                              l2630 0656  
                            l2622 062E                              l1920 05C6                              l1912 05B4  
                            l1904 05A8                              l1840 0494                              l1824 0443  
                            l1816 0433                              l1808 0423                              l1832 0453  
                            l1760 03B7                              l2296 0C0C                              l2552 039D  
                            l2544 037F                              l2536 0359                              l2528 0329  
                            l2480 01A2                              l2472 0150                              l2464 00CF  
                            l2456 00A9                              l2448 0095                              l1752 0EB9  
                            l1728 0E75                              l2288 0F28                              l2616 0CAD  
                            l2608 0C58                              l2368 0E34                              l2392 0D3C  
                            l2384 0D2B                              l2640 06A5                              l2632 065C  
                            l2624 063B                              l2560 0BF9                              l1930 0604  
                            l1922 05CB                              l1914 05B8                              l1906 05AD  
                            l1842 0496                              l1850 04A8                              l1834 0454  
                            l1826 0447                              l1818 0437                              l1770 03CB  
                            l1762 03B8                              l1754 03A6                              l2298 0C0E  
                            l2546 038D                              l2538 0364                              l2490 0232  
                            l2482 01B2                              l2474 016C                              l2466 00EC  
                            l2618 0CB3                              l2394 0D3F                              l2386 0D2D  
                            l2378 0D1F                              l2650 06DD                              l2642 06B3  
                            l2634 0661                              l2626 0640                              l2570 0C04  
                            l2562 0BFA                              l1940 061B                              l1932 0609  
                            l1924 05D9                              l1916 05BE                              l1908 05AF  
                            l1860 04D9                              l1852 04B4                              l1844 049A  
                            l1836 046B                              l1828 044B                              l1780 03E1  
                            l1764 03BD                              l1772 03CD                              l1756 03AD  
                            l2548 0391                              l2492 0242                              l2484 01CF  
                            l2476 0175                              l2468 0108                              l1748 0EA4  
                            l2396 0D46                              l2388 0D31                              l2652 06E4  
                            l2644 06B9                              l2636 067E                              l2628 0647  
                            l2572 0C05                              l2564 0BFD                              l2556 0BE8  
                            l2580 0DDB                              l1942 061D                              l1934 0611  
                            l1926 05DD                              l1870 04F0                              l1862 04DD  
                            l1854 04B9                              l1846 049B                              l1838 048B  
                            l1790 03F6                              l1782 03E7                              l1774 03D5  
                            l1766 03C2                              l1758 03B3                              l2494 026F  
                            l2486 01E8                              l2478 0185                              l2590 0CC6  
                            l2398 0D4A                              l2654 0744                              l2638 0682  
                            l2646 06BD                              l2566 0C00                              l2558 0BF1  
                            l2574 0D7A                              l2670 075F                              l1944 0628  
                            l1936 0616                              l1928 05FB                              l1880 0553  
                            l1872 04F1                              l1864 04E1                              l1848 04A4  
                            l1792 03FE                              l1784 03EB                              l1776 03DA  
                            l1768 03CA                              l2496 0295                              l2488 0205  
                            l2592 0D1A                              l2648 06D5                              l2568 0C01  
                            l2576 0D85                              l2584 0B67                              l2672 0773  
                            l1946 062C                              l1938 0617                              l1890 0588  
                            l1882 0559                              l1874 04FA                              l1866 04EA  
                            l1858 04C2                              l1794 03FF                              l1786 03EC  
                            l1778 03E0                              l2498 02BD                              l2578 0DD7  
                            l2586 0B71                              l2674 0796                              l1884 055E  
                            l1868 04EC                              l1876 04FF                              l1788 03F1  
                            l1796 0401                              l2596 0C32                              l2676 07C0  
                            l2668 0752                              l1894 0591                              l1878 0515  
                            l1886 056D                              l1798 040F                              l2598 0C3C  
                            l1896 059A                              l1888 0583                              l1898 059E  
                            ?_isr 0076                              STR_1 0806                              u2000 03EB  
                            u2001 03EA                              u2010 03F1                              u2011 03F0  
                            u2020 03F6                              u2021 03F5                              u2110 04B0  
                            u2030 040F                              u2111 04AF                              u2031 040E  
                            u2120 04B4                              u2040 0413                              u2201 052C  
                            u2121 04B3                              u2105 049D                              u2041 0412  
                            u2210 0540                              u2202 052D                              u2130 04B9  
                            u2050 046B                              u2211 0541                              u2203 0532  
                            u2131 04B8                              u2051 046A                              u2300 05B8  
                            u2220 055E                              u2212 0546                              u2204 0533  
                            u2060 0476                              u3100 0F28                              u2301 05B7  
                            u2221 055D                              u2213 0547                              u2205 0538  
                            u2141 04CB                              u2061 0474                              u3101 0F27  
                            u2310 05BE                              u2230 0583                              u2206 0539  
                            u2150 04DD                              u2142 04D2                              u2070 0477  
                            u3110 0F2E                              u2311 05BD                              u2231 0582  
                            u2151 04DC                              u2143 04D9                              u2055 0467  
                            u3111 0F2D                              u2400 061B                              u2320 05C5  
                            u2240 0588                              u2160 04E1                              u2080 048B  
                            u3120 0C19                              u2401 061A                              u2321 05C4  
                            u2241 0587                              u2161 04E0                              u2081 048A  
                            u3121 0C18                              u2410 062C                              u2330 05CB  
                            u2170 04F0                              u2090 049A                              u3210 0E15  
                            u2411 062B                              u2331 05CA                              u2171 04EF  
                            u2091 0499                              u3211 0E14                              u2340 05DD  
                            u2260 059E                              u3140 0C2D                              u3060 0EDC  
                            u2341 05DC                              u2261 059D                              u3141 0C2C  
                            u3061 0EDB                              u3205 0E07                              u2350 05EC  
                            u2270 05A3                              u2190 0515                              u3070 0EE2  
                            u3230 0E26                              u3310 0D4E                              u2271 05A2  
                            u2255 0593                              u2191 0514                              u3135 0C20  
                            u3071 0EE1                              u3055 0ECC                              u3231 0E25  
                            u3311 0D4D                              u2360 05FB                              u2280 05AD  
                            u3400 0088                              u3080 0F00                              u3320 0D58  
                            u2361 05FA                              u2281 05AC                              u2193 0511  
                            u2185 04F3                              u3401 0087                              u3081 0EFF  
                            u3225 0E16                              u3321 0D57                              u3305 0D40  
                            u2370 0604                              u2290 05B3                              u3410 008D  
                            u3250 0E3A                              u3170 0DE7                              u2371 0603  
                            u2355 05E7                              u2291 05B2                              u3411 008C  
                            u3155 0C66                              u3251 0E39                              u3235 0E22  
                            u3171 0DE6                              u2380 0609                              u3420 00A4  
                            u3260 0E3F                              u3180 0DF2                              u3340 0D6B  
                            u2381 0608                              u3501 01C1                              u3421 00A3  
                            u3165 0B9E                              u3261 0E3E                              u3245 0E2E  
                            u3181 0DF1                              u3341 0D6A                              u3325 0D54  
                            u2390 0616                              u3502 01C8                              u3430 00A9  
                            u1910 0E9C                              u3190 0E03                              u3350 0D70  
                            u3270 0D26                              u2391 0615                              u3503 01CF  
                            u3431 00A8                              u1911 0E9B                              u3095 0F04  
                            u3191 0E02                              u3351 0D6F                              u3335 0D5F  
                            u3271 0D25                              u3360 0056                              u1920 0EA3  
                            u2800 0F50                              u3280 0D31                              u3521 01F7  
                            u3441 00FA                              u3361 0055                              u1921 0EA2  
                            u1905 0E8C                              u2801 0F4F                              u3281 0D30  
                            u3610 02E1                              u3522 01FE                              u3442 0101  
                            u3370 005C                              u2810 0F70                              u3290 0D3C  
                            u3611 02E0                              u3531 0224                              u3523 0205  
                            u3515 01D1                              u3451 0116                              u3443 0108  
                            u3371 005B                              u2811 0F6F                              u3291 0D3B  
                            u3700 0359                              u3532 022B                              u3452 011D  
                            u3380 0061                              u1940 0EB4                              u1860 0E56  
                            u2900 0FE2                              u3701 0358                              u3605 02D6  
                            u3541 0251                              u3533 0232                              u3461 0142  
                            u3453 0124                              u3381 0060                              u1941 0EB3  
                            u1861 0E55                              u3710 0373                              u3630 02F5  
                            u3550 027B                              u3542 0258                              u3462 0149  
                            u3390 0082                              u1950 0EB9                              u1870 0E6D  
                            u2910 0FF2                              u2830 0F91                              u3711 0372  
                            u3631 02F4                              u3543 025F                              u3471 015E  
                            u3463 0150                              u3391 0081                              u1951 0EB8  
                            u1935 0EA6                              u2911 0FF1                              u2831 0F90  
                            u1960 03B7                              u3720 0391                              u3640 02FA  
                            u3472 0165                              u1880 0E83                              u2920 0FF6  
                            u3800 06DD                              u1961 03B6                              u3721 0390  
                            u3705 0355                              u3641 02F9                              u3625 02E4  
                            u3561 0287                              u3473 016C                              u1881 0E82  
                            u2921 0FF5                              u2905 0FDD                              u2825 0F83  
                            u3801 06DC                              u1970 03BD                              u3650 030E  
                            u3570 02A3                              u3562 028E                              u1890 0E8A  
                            u2850 0FB3                              u3730 0CC5                              u3810 06E4  
                            u1971 03BC                              u3715 036F                              u3651 030D  
                            u3563 0295                              u3555 0276                              u3491 0194  
                            u1891 0E89                              u1875 0E68                              u2851 0FB2  
                            u3731 0CC4                              u3811 06E3                              u1980 03C2  
                            u3660 0315                              u3492 019B                              u3820 0751  
                            u3740 0635                              u1981 03C1                              u3661 0314  
                            u3581 02AF                              u3493 01A2                              u3485 016E  
                            u2845 0FA5                              u3821 0750                              u3741 0633  
                            u1990 03E0                              u3670 031B                              u3582 02B6  
                            u2870 0FC3                              u2790 0F4C                              u3750 0636  
                            u1991 03DF                              u3671 031A                              u3583 02BD  
                            u3575 029E                              u2871 0FC2                              u2791 0F4B  
                            i1l24 0BE7                              u3680 032D                              u2880 0FC9  
                            u3760 0640                              u3681 032C                              u2881 0FC8  
                            u2865 0FB8                              u3825 074D                              u3761 063F  
                            i1l42 0BC3                              u3690 033C                              u2890 0FCD  
                            u3770 067E                              u3595 02BF                              u2891 0FCC  
                            u3907 0C75                              u3771 067D                              u3780 06B2  
                            u3917 0C89                              u3781 06B1                              u3790 06D5  
                            u3695 0337                              u3791 06D4                              u3857 0EE8  
                            u3785 06AE                              u3867 0EF1                              u3795 06D1  
                            u3877 0F13                              u3887 0F34                              u3897 0F3D  
                            _TMR0 0001                              _main 0752                              btemp 007E  
              __size_of_LCD_Texto 0036                              start 000C                   fp__kelvin_value 0042  
                           ??_isr 007A                  __end_of_LCD_init 0C5F                     ___fltol@sign1 0065  
                 __end_of___fladd 062E                             ?_main 0076                   __end_of___awdiv 0E49  
                 __end_of___awmod 0D7A                   __end_of___flmul 03A6                   __end_of___fltol 0EC5  
                 ___awdiv@divisor 0020                             i1l152 07FE                   ___awdiv@counter 0025  
                           _PORTB 0006                             _TRISB 0086                             _value 00AC  
                           _print 00A0                             fpbase 0032                             pclath 000A  
                           status 0003                             wtemp0 007E                   __initialization 000F  
                    __end_of_main 07EE                       LCD_num@size 00B2                  ?_dispLCD_dataReg 0076  
                          ??_main 00B6                     ?_kelvin_value 0020                     _status_timer0 0000  
               __end_of_LCD_Texto 0CC6                         ??_LCD_num 00AF                  ?_dispLCD_instReg 0076  
             fp__Fahrenheit_value 0033                     _counter_value 00B8                            _ADRESH 001E  
                          _ADRESL 009E                  ___awdiv@dividend 0022                            _ANSELH 0189  
                    LCD_Texto@col 0027                      LCD_Texto@lin 0026                  __end_of_adc_init 0C09  
                __end_of_adc_read 0BE8                      LCD_Texto@pos 002A                            i1l1400 0BE4  
                          i1l1402 07EE                            i1l1404 07F2                            i1l1500 0BBE  
                          i1l1406 07F8                      LCD_Texto@str 0028                            i1l1490 0BAD  
                          i1l1396 0BCA                            i1l1492 0BB1                            i1l1398 0BD3  
                          i1l1494 0BB2                            i1l1496 0BB7                            i1l1498 0BBD  
                          u150_20 0BB1                            u150_21 0BB0                            u151_20 0BBD  
                          u151_21 0BBC                            u139_20 07F8                            u139_21 07F7  
                __end_of__fptable 0045          __end_of_Fahrenheit_value 0D1F                  __end_of___xxtofl 1000  
                       ??___fladd 0050                         ??___awdiv 0024                         ??___awmod 0024  
                       ??___flmul 0036                         ??___fltol 0060                            _lcd_b0 0000  
                          _lcd_b1 0000                  ___awdiv@quotient 0027                   ___awmod@divisor 0020  
                 ___awmod@counter 0025                    ??_kelvin_value 0022                            fptable 002D  
                          fptotal 000C                __size_of__Umul8_16 0029                            saved_w 007E  
           __end_of_celsius_value 0DE0                      ___xxtofl@arg 002A                      ___xxtofl@exp 0029  
                    ___xxtofl@val 0020           __end_of__initialization 0029                         ?_LCD_init 0076  
         __size_of_dispLCD_lincol 0015                __size_of_adc_value 0007                        ___fltol@f1 005C  
                  __pcstackCOMMON 0076                      __pidataBANK1 0B76                      LCD_num@sinal 00B3  
                  _OPTION_REGbits 0081                        __pbssBANK1 00B8                        ??_LCD_init 0023  
               __end_of__Umul8_16 0C32                        __pmaintext 0752                        __pintentry 0004  
                       ?_adc_init 0076                         ?_adc_read 0076                 __end_of_adc_value 0B67  
                       ?___xxtofl 0020                           _LCD_num 062E                           _LCDbits 0008  
                         _LCD_str 0000                       _Play_timer0 0000                        __stringtab 0800  
            __end_of_kelvin_value 0B76                           ___fladd 03A6                           ___awdiv 0DE0  
                         ___awmod 0D1F                           ___flmul 0045                           ___fltol 0E49  
                   ?_t0_init_cont 0076                         _ANSELbits 0188                        ??_adc_init 0020  
                      ??_adc_read 0076                           __ptext1 0B67                           __ptext2 0D7A  
                         __ptext3 0B60                           __ptext4 0BE8                           __ptext5 062E  
                         __ptext6 0D1F                           __ptext7 0DE0                           __ptext8 0C32  
                         __ptext9 0C90                        _read_value 0074  Fahrenheit_value@Fahrenheit_value 0069  
                    __size_of_isr 001D                        ??___xxtofl 0024                  ___awmod@dividend 0022  
                      fp__LCD_num 003C                         _LCD_Texto 0C90              end_of_initialization 0029  
                  _dispLCD_lincol 0B98                 ?_Fahrenheit_value 0067                ??_Fahrenheit_value 0069  
                      _timer0_get 0000                    ??_t0_init_cont 0076                        _temp_value 00BA  
                     ___fladd@grs 005B                     ___xxtofl@sign 0028                         _TRISDbits 0088  
        __size_of_dispLCD_dataReg 0031                        ?_LCD_Texto 0026            __end_of_dispLCD_lincol 0BAD  
        __size_of_dispLCD_instReg 007F                       ___flmul@grs 003D          kelvin_value@kelvin_value 0022  
               __size_of_LCD_init 002D               start_initialization 000F                       __end_of_isr 0BCA  
                      LCD_num@col 006C                        LCD_num@div 00B4                        LCD_num@lin 006B  
                      LCD_num@tam 006F                        LCD_num@num 006D             __size_of_kelvin_value 000F  
                 ?_dispLCD_lincol 0023                 dispLCD_lincol@col 0023                 dispLCD_lincol@lin 0025  
                      init_fetch0 0B85                         __Umul8_16 0C09                       __pdataBANK1 00A0  
          __size_of_celsius_value 0066                  fp__celsius_value 003F                         ___fladd@a 004C  
                       ___fladd@b 0048                      _kelvin_value 0B67                 __size_of_adc_init 0021  
               __size_of_adc_read 001E                          ?_LCD_num 006B                         ___flmul@a 0032  
                       ___flmul@b 002E                       __pbssCOMMON 0070                         ___latbits 0002  
                   __pcstackBANK0 0020                     __pcstackBANK1 00AF                 __size_of__fptable 0018  
               __size_of___xxtofl 00BC                         _adc_value 0B60                       ??_LCD_Texto 0029  
            __end_of_t0_init_cont 07FF                 ??_dispLCD_dataReg 0020                 ??_dispLCD_instReg 0020  
                       __pfunctab 002D                          ?___fladd 0048                          ?___awdiv 0020  
                        ?___awmod 0020                          ?___flmul 002E                          ?___fltol 005C  
                      ?__Umul8_16 0020                       _dispLCD_clr 0000                         __pstrings 0800  
                    _Pause_timer0 0000                        ?_adc_value 0020                     _celsius_value 0D7A  
               interrupt_function 0004                          _LCD_init 0C32                          _PIE1bits 008C  
                        _PIR1bits 000C                         _var_value 0072                  dispLCD_dataReg@d 0021  
                    fp__LCD_Texto 0036                        _ADCON0bits 001F                       __stringbase 0805  
                      _ADCON1bits 009F         __size_of_Fahrenheit_value 0059                  __size_of_LCD_num 0124  
                  ?_celsius_value 0067                  dispLCD_instReg@i 0022                       ??__Umul8_16 0022  
                __size_of___fladd 0288                  __size_of___awdiv 0069                  __size_of___awmod 005B  
                __size_of___flmul 0361                  __size_of___fltol 007C        celsius_value@celsius_value 0069  
              __end_of__stringtab 0806                          _adc_init 0BE8                          _adc_read 0BCA  
                        __fptable 002D                          ___xxtofl 0F44             __size_of_t0_init_cont 0011  
                ??_dispLCD_lincol 0024                          __ptext10 0B98                          __ptext11 0EC5  
                        __ptext20 07EE                          __ptext12 0C5F                          __ptext21 0BCA  
                        __ptext13 0CC6                          __ptext14 0F44                          __ptext15 0E49  
                        __ptext16 0045                          __ptext17 0C09                          __ptext18 03A6  
                        __ptext19 0BAD                       ??_adc_value 0022                     __size_of_main 009C  
                     fp__LCD_init 0039                      _t0_init_cont 07EE                      _timer0_value 0070  
                      _INTCONbits 000B                   _dispLCD_dataReg 0C5F                   ??_celsius_value 0069  
                        init_ram0 0B89                   _dispLCD_instReg 0EC5                          intlevel1 002D  
                       stringcode 0800                       _timer0_init 0000                  _Fahrenheit_value 0CC6  
          __Umul8_16@multiplicand 0020                          stringdir 0800                          stringtab 0800  
                   ___fladd@signs 0058                      ___fladd@aexp 0059                      ___fladd@bexp 005A  
            __Umul8_16@multiplier 0028                 __Umul8_16@product 0024  
